---
triple:          'arm64-apple-darwin'
binary-path:     '/Users/pattarakultawee.k.aa/Desktop/CLRS/CP/SPOJ/horrible'
relocations:
  - { offset: 0x3E8E, size: 0x8, addend: 0x0, symName: __ZNSt3__124__put_character_sequenceB8ne180100IcNS_11char_traitsIcEEEERNS_13basic_ostreamIT_T0_EES7_PKS4_m, symObjAddr: 0x1614, symBinAddr: 0x100002FE8, symSize: 0x1F4 }
  - { offset: 0x4F0A, size: 0x8, addend: 0x0, symName: __ZNSt3__1lsB8ne180100INS_11char_traitsIcEEEERNS_13basic_ostreamIcT_EES6_c, symObjAddr: 0x2D0, symBinAddr: 0x100001CA4, symSize: 0x34 }
  - { offset: 0x4F50, size: 0x8, addend: 0x0, symName: __ZNSt3__122__make_exception_guardB8ne180100INS_6vectorIxNS_9allocatorIxEEE16__destroy_vectorEEENS_28__exception_guard_exceptionsIT_EES7_, symObjAddr: 0x618, symBinAddr: 0x100001FEC, symSize: 0x40 }
  - { offset: 0x4F85, size: 0x8, addend: 0x0, symName: __ZNSt3__119__allocate_at_leastB8ne180100INS_9allocatorIxEEEENS_19__allocation_resultINS_16allocator_traitsIT_E7pointerEEERS5_m, symObjAddr: 0xA20, symBinAddr: 0x1000023F4, symSize: 0x40 }
  - { offset: 0x4FC8, size: 0x8, addend: 0x0, symName: __ZNSt3__13minB8ne180100ImEERKT_S3_S3_, symObjAddr: 0xAC4, symBinAddr: 0x100002498, symSize: 0x2C }
  - { offset: 0x520C, size: 0x8, addend: 0x0, symName: __ZNSt3__13minB8ne180100ImNS_6__lessIvvEEEERKT_S5_S5_T0_, symObjAddr: 0xB50, symBinAddr: 0x100002524, symSize: 0x54 }
  - { offset: 0x52AB, size: 0x8, addend: 0x0, symName: __ZNSt3__120__throw_length_errorB8ne180100EPKc, symObjAddr: 0xC2C, symBinAddr: 0x100002600, symSize: 0x64 }
  - { offset: 0x52D3, size: 0x8, addend: 0x0, symName: __ZNSt3__130__libcpp_is_constant_evaluatedB8ne180100Ev, symObjAddr: 0xDC0, symBinAddr: 0x100002794, symSize: 0xC }
  - { offset: 0x52F0, size: 0x8, addend: 0x0, symName: __ZNSt3__117__libcpp_allocateB8ne180100Emm, symObjAddr: 0xDCC, symBinAddr: 0x1000027A0, symSize: 0x28 }
  - { offset: 0x532D, size: 0x8, addend: 0x0, symName: __ZNSt3__121__libcpp_operator_newB8ne180100IJmEEEPvDpT_, symObjAddr: 0xDF4, symBinAddr: 0x1000027C8, symSize: 0x24 }
  - { offset: 0x5366, size: 0x8, addend: 0x0, symName: __ZNSt3__112__to_addressB8ne180100IxEEPT_S2_, symObjAddr: 0xEF0, symBinAddr: 0x1000028C4, symSize: 0x14 }
  - { offset: 0x539B, size: 0x8, addend: 0x0, symName: __ZNSt3__119__libcpp_deallocateB8ne180100EPvmm, symObjAddr: 0x1284, symBinAddr: 0x100002C58, symSize: 0x30 }
  - { offset: 0x53E3, size: 0x8, addend: 0x0, symName: __ZNSt3__127__do_deallocate_handle_sizeB8ne180100IJEEEvPvmDpT_, symObjAddr: 0x12B4, symBinAddr: 0x100002C88, symSize: 0x28 }
  - { offset: 0x5421, size: 0x8, addend: 0x0, symName: __ZNSt3__124__libcpp_operator_deleteB8ne180100IJPvEEEvDpT_, symObjAddr: 0x12DC, symBinAddr: 0x100002CB0, symSize: 0x24 }
  - { offset: 0x5456, size: 0x8, addend: 0x0, symName: __ZNSt3__116__pad_and_outputB8ne180100IcNS_11char_traitsIcEEEENS_19ostreambuf_iteratorIT_T0_EES6_PKS4_S8_S8_RNS_8ios_baseES4_, symObjAddr: 0x1824, symBinAddr: 0x1000031F8, symSize: 0x248 }
  - { offset: 0x5525, size: 0x8, addend: 0x0, symName: __ZNSt3__112__to_addressB8ne180100IKcEEPT_S3_, symObjAddr: 0x1D94, symBinAddr: 0x100003768, symSize: 0x14 }
  - { offset: 0x558D, size: 0x8, addend: 0x0, symName: __ZNSt3__19use_facetB8ne180100INS_5ctypeIcEEEERKT_RKNS_6localeE, symObjAddr: 0x208C, symBinAddr: 0x100003A60, symSize: 0x2C }
  - { offset: 0x6764, size: 0x8, addend: 0x0, symName: __ZSt28__throw_bad_array_new_lengthB8ne180100v, symObjAddr: 0xD8C, symBinAddr: 0x100002760, symSize: 0x34 }
  - { offset: 0x6CA7, size: 0x8, addend: 0x0, symName: _main, symObjAddr: 0x0, symBinAddr: 0x1000019D4, symSize: 0x1B8 }
  - { offset: 0x6D4E, size: 0x8, addend: 0x0, symName: __ZNSt3__19basic_iosIcNS_11char_traitsIcEEE3tieB8ne180100EPNS_13basic_ostreamIcS2_EE, symObjAddr: 0x1B8, symBinAddr: 0x100001B8C, symSize: 0x2C }
  - { offset: 0x6EDE, size: 0x8, addend: 0x0, symName: __ZN3BITC1Ei, symObjAddr: 0x1E4, symBinAddr: 0x100001BB8, symSize: 0x34 }
  - { offset: 0x6F14, size: 0x8, addend: 0x0, symName: __ZN3BIT6updateEiix, symObjAddr: 0x218, symBinAddr: 0x100001BEC, symSize: 0xB8 }
  - { offset: 0x6F62, size: 0x8, addend: 0x0, symName: __ZN3BIT5queryEii, symObjAddr: 0x304, symBinAddr: 0x100001CD8, symSize: 0x58 }
  - { offset: 0x6FA2, size: 0x8, addend: 0x0, symName: __ZN3BITD1Ev, symObjAddr: 0x35C, symBinAddr: 0x100001D30, symSize: 0x2C }
  - { offset: 0x6FCC, size: 0x8, addend: 0x0, symName: __ZN3BITC2Ei, symObjAddr: 0x398, symBinAddr: 0x100001D6C, symSize: 0x88 }
  - { offset: 0x7002, size: 0x8, addend: 0x0, symName: __ZN24RangeQueryPointUpdateBITC1Ei, symObjAddr: 0x420, symBinAddr: 0x100001DF4, symSize: 0x34 }
  - { offset: 0x7038, size: 0x8, addend: 0x0, symName: __ZN24RangeQueryPointUpdateBITD1Ev, symObjAddr: 0x454, symBinAddr: 0x100001E28, symSize: 0x2C }
  - { offset: 0x7062, size: 0x8, addend: 0x0, symName: __ZN24RangeQueryPointUpdateBITC2Ei, symObjAddr: 0x480, symBinAddr: 0x100001E54, symSize: 0x4C }
  - { offset: 0x7098, size: 0x8, addend: 0x0, symName: __ZNSt3__16vectorIxNS_9allocatorIxEEEC1Em, symObjAddr: 0x4CC, symBinAddr: 0x100001EA0, symSize: 0x34 }
  - { offset: 0x70D1, size: 0x8, addend: 0x0, symName: __ZNSt3__16vectorIxNS_9allocatorIxEEEC2Em, symObjAddr: 0x500, symBinAddr: 0x100001ED4, symSize: 0xDC }
  - { offset: 0x712E, size: 0x8, addend: 0x0, symName: __ZNSt3__117__compressed_pairIPxNS_9allocatorIxEEEC1B8ne180100IDnNS_18__default_init_tagEEEOT_OT0_, symObjAddr: 0x5DC, symBinAddr: 0x100001FB0, symSize: 0x3C }
  - { offset: 0x7184, size: 0x8, addend: 0x0, symName: __ZNSt3__16vectorIxNS_9allocatorIxEEE16__destroy_vectorC1B8ne180100ERS3_, symObjAddr: 0x658, symBinAddr: 0x10000202C, symSize: 0x34 }
  - { offset: 0x71BB, size: 0x8, addend: 0x0, symName: __ZNSt3__16vectorIxNS_9allocatorIxEEE11__vallocateB8ne180100Em, symObjAddr: 0x68C, symBinAddr: 0x100002060, symSize: 0xAC }
  - { offset: 0x71FD, size: 0x8, addend: 0x0, symName: __ZNSt3__16vectorIxNS_9allocatorIxEEE18__construct_at_endEm, symObjAddr: 0x738, symBinAddr: 0x10000210C, symSize: 0xD0 }
  - { offset: 0x726D, size: 0x8, addend: 0x0, symName: __ZNSt3__128__exception_guard_exceptionsINS_6vectorIxNS_9allocatorIxEEE16__destroy_vectorEE10__completeB8ne180100Ev, symObjAddr: 0x808, symBinAddr: 0x1000021DC, symSize: 0x1C }
  - { offset: 0x7291, size: 0x8, addend: 0x0, symName: __ZNSt3__128__exception_guard_exceptionsINS_6vectorIxNS_9allocatorIxEEE16__destroy_vectorEED1B8ne180100Ev, symObjAddr: 0x824, symBinAddr: 0x1000021F8, symSize: 0x2C }
  - { offset: 0x72B9, size: 0x8, addend: 0x0, symName: __ZNSt3__117__compressed_pairIPxNS_9allocatorIxEEEC2B8ne180100IDnNS_18__default_init_tagEEEOT_OT0_, symObjAddr: 0x850, symBinAddr: 0x100002224, symSize: 0x40 }
  - { offset: 0x730F, size: 0x8, addend: 0x0, symName: __ZNSt3__122__compressed_pair_elemIPxLi0ELb0EEC2B8ne180100IDnvEEOT_, symObjAddr: 0x890, symBinAddr: 0x100002264, symSize: 0x1C }
  - { offset: 0x734F, size: 0x8, addend: 0x0, symName: __ZNSt3__122__compressed_pair_elemINS_9allocatorIxEELi1ELb1EEC2B8ne180100ENS_18__default_init_tagE, symObjAddr: 0x8AC, symBinAddr: 0x100002280, symSize: 0x2C }
  - { offset: 0x7381, size: 0x8, addend: 0x0, symName: __ZNSt3__19allocatorIxEC2B8ne180100Ev, symObjAddr: 0x8D8, symBinAddr: 0x1000022AC, symSize: 0x2C }
  - { offset: 0x73A9, size: 0x8, addend: 0x0, symName: __ZNSt3__116__non_trivial_ifILb1ENS_9allocatorIxEEEC2B8ne180100Ev, symObjAddr: 0x904, symBinAddr: 0x1000022D8, symSize: 0x14 }
  - { offset: 0x73D1, size: 0x8, addend: 0x0, symName: __ZNSt3__128__exception_guard_exceptionsINS_6vectorIxNS_9allocatorIxEEE16__destroy_vectorEEC1B8ne180100ES5_, symObjAddr: 0x918, symBinAddr: 0x1000022EC, symSize: 0x34 }
  - { offset: 0x7407, size: 0x8, addend: 0x0, symName: __ZNSt3__128__exception_guard_exceptionsINS_6vectorIxNS_9allocatorIxEEE16__destroy_vectorEEC2B8ne180100ES5_, symObjAddr: 0x94C, symBinAddr: 0x100002320, symSize: 0x24 }
  - { offset: 0x743D, size: 0x8, addend: 0x0, symName: __ZNSt3__16vectorIxNS_9allocatorIxEEE16__destroy_vectorC2B8ne180100ERS3_, symObjAddr: 0x970, symBinAddr: 0x100002344, symSize: 0x20 }
  - { offset: 0x7474, size: 0x8, addend: 0x0, symName: __ZNKSt3__16vectorIxNS_9allocatorIxEEE8max_sizeEv, symObjAddr: 0x990, symBinAddr: 0x100002364, symSize: 0x74 }
  - { offset: 0x749A, size: 0x8, addend: 0x0, symName: __ZNKSt3__16vectorIxNS_9allocatorIxEEE20__throw_length_errorB8ne180100Ev, symObjAddr: 0xA04, symBinAddr: 0x1000023D8, symSize: 0x1C }
  - { offset: 0x74BE, size: 0x8, addend: 0x0, symName: __ZNSt3__16vectorIxNS_9allocatorIxEEE7__allocB8ne180100Ev, symObjAddr: 0xA60, symBinAddr: 0x100002434, symSize: 0x28 }
  - { offset: 0x74E2, size: 0x8, addend: 0x0, symName: __ZNSt3__16vectorIxNS_9allocatorIxEEE9__end_capB8ne180100Ev, symObjAddr: 0xA88, symBinAddr: 0x10000245C, symSize: 0x28 }
  - { offset: 0x7506, size: 0x8, addend: 0x0, symName: __ZNKSt3__16vectorIxNS_9allocatorIxEEE14__annotate_newB8ne180100Em, symObjAddr: 0xAB0, symBinAddr: 0x100002484, symSize: 0x14 }
  - { offset: 0x7543, size: 0x8, addend: 0x0, symName: __ZNSt3__116allocator_traitsINS_9allocatorIxEEE8max_sizeB8ne180100IS2_vEEmRKS2_, symObjAddr: 0xAF0, symBinAddr: 0x1000024C4, symSize: 0x24 }
  - { offset: 0x7570, size: 0x8, addend: 0x0, symName: __ZNKSt3__16vectorIxNS_9allocatorIxEEE7__allocB8ne180100Ev, symObjAddr: 0xB14, symBinAddr: 0x1000024E8, symSize: 0x28 }
  - { offset: 0x7595, size: 0x8, addend: 0x0, symName: __ZNSt3__114numeric_limitsIlE3maxB8ne180100Ev, symObjAddr: 0xB3C, symBinAddr: 0x100002510, symSize: 0x14 }
  - { offset: 0x75BC, size: 0x8, addend: 0x0, symName: __ZNKSt3__16__lessIvvEclB8ne180100ImmEEbRKT_RKT0_, symObjAddr: 0xBA4, symBinAddr: 0x100002578, symSize: 0x34 }
  - { offset: 0x760E, size: 0x8, addend: 0x0, symName: __ZNKSt3__19allocatorIxE8max_sizeB8ne180100Ev, symObjAddr: 0xBD8, symBinAddr: 0x1000025AC, symSize: 0x14 }
  - { offset: 0x7632, size: 0x8, addend: 0x0, symName: __ZNKSt3__117__compressed_pairIPxNS_9allocatorIxEEE6secondB8ne180100Ev, symObjAddr: 0xBEC, symBinAddr: 0x1000025C0, symSize: 0x24 }
  - { offset: 0x7656, size: 0x8, addend: 0x0, symName: __ZNKSt3__122__compressed_pair_elemINS_9allocatorIxEELi1ELb1EE5__getB8ne180100Ev, symObjAddr: 0xC10, symBinAddr: 0x1000025E4, symSize: 0x14 }
  - { offset: 0x767B, size: 0x8, addend: 0x0, symName: __ZNSt3__123__libcpp_numeric_limitsIlLb1EE3maxB8ne180100Ev, symObjAddr: 0xC24, symBinAddr: 0x1000025F8, symSize: 0x8 }
  - { offset: 0x768E, size: 0x8, addend: 0x0, symName: __ZNSt12length_errorC1B8ne180100EPKc, symObjAddr: 0xC90, symBinAddr: 0x100002664, symSize: 0x34 }
  - { offset: 0x76C4, size: 0x8, addend: 0x0, symName: __ZNSt12length_errorC2B8ne180100EPKc, symObjAddr: 0xCC4, symBinAddr: 0x100002698, symSize: 0x44 }
  - { offset: 0x76FA, size: 0x8, addend: 0x0, symName: __ZNSt3__19allocatorIxE8allocateB8ne180100Em, symObjAddr: 0xD08, symBinAddr: 0x1000026DC, symSize: 0x84 }
  - { offset: 0x772C, size: 0x8, addend: 0x0, symName: __ZNSt3__117__compressed_pairIPxNS_9allocatorIxEEE6secondB8ne180100Ev, symObjAddr: 0xE18, symBinAddr: 0x1000027EC, symSize: 0x24 }
  - { offset: 0x7750, size: 0x8, addend: 0x0, symName: __ZNSt3__122__compressed_pair_elemINS_9allocatorIxEELi1ELb1EE5__getB8ne180100Ev, symObjAddr: 0xE3C, symBinAddr: 0x100002810, symSize: 0x14 }
  - { offset: 0x7774, size: 0x8, addend: 0x0, symName: __ZNSt3__117__compressed_pairIPxNS_9allocatorIxEEE5firstB8ne180100Ev, symObjAddr: 0xE50, symBinAddr: 0x100002824, symSize: 0x24 }
  - { offset: 0x7798, size: 0x8, addend: 0x0, symName: __ZNSt3__122__compressed_pair_elemIPxLi0ELb0EE5__getB8ne180100Ev, symObjAddr: 0xE74, symBinAddr: 0x100002848, symSize: 0x14 }
  - { offset: 0x77D5, size: 0x8, addend: 0x0, symName: __ZNSt3__16vectorIxNS_9allocatorIxEEE21_ConstructTransactionC1B8ne180100ERS3_m, symObjAddr: 0xE88, symBinAddr: 0x10000285C, symSize: 0x3C }
  - { offset: 0x781B, size: 0x8, addend: 0x0, symName: __ZNSt3__116allocator_traitsINS_9allocatorIxEEE9constructB8ne180100IxJEvEEvRS2_PT_DpOT0_, symObjAddr: 0xEC4, symBinAddr: 0x100002898, symSize: 0x2C }
  - { offset: 0x785C, size: 0x8, addend: 0x0, symName: __ZNSt3__16vectorIxNS_9allocatorIxEEE21_ConstructTransactionD1B8ne180100Ev, symObjAddr: 0xF04, symBinAddr: 0x1000028D8, symSize: 0x2C }
  - { offset: 0x7884, size: 0x8, addend: 0x0, symName: __ZNSt3__16vectorIxNS_9allocatorIxEEE21_ConstructTransactionC2B8ne180100ERS3_m, symObjAddr: 0xF30, symBinAddr: 0x100002904, symSize: 0x44 }
  - { offset: 0x78CA, size: 0x8, addend: 0x0, symName: __ZNSt3__19allocatorIxE9constructB8ne180100IxJEEEvPT_DpOT0_, symObjAddr: 0xF74, symBinAddr: 0x100002948, symSize: 0x1C }
  - { offset: 0x790A, size: 0x8, addend: 0x0, symName: __ZNSt3__16vectorIxNS_9allocatorIxEEE21_ConstructTransactionD2B8ne180100Ev, symObjAddr: 0xF90, symBinAddr: 0x100002964, symSize: 0x20 }
  - { offset: 0x7932, size: 0x8, addend: 0x0, symName: __ZNSt3__128__exception_guard_exceptionsINS_6vectorIxNS_9allocatorIxEEE16__destroy_vectorEED2B8ne180100Ev, symObjAddr: 0xFB0, symBinAddr: 0x100002984, symSize: 0x48 }
  - { offset: 0x795A, size: 0x8, addend: 0x0, symName: __ZNSt3__16vectorIxNS_9allocatorIxEEE16__destroy_vectorclB8ne180100Ev, symObjAddr: 0xFF8, symBinAddr: 0x1000029CC, symSize: 0x90 }
  - { offset: 0x797E, size: 0x8, addend: 0x0, symName: __ZNSt3__16vectorIxNS_9allocatorIxEEE7__clearB8ne180100Ev, symObjAddr: 0x1088, symBinAddr: 0x100002A5C, symSize: 0x28 }
  - { offset: 0x79A2, size: 0x8, addend: 0x0, symName: __ZNKSt3__16vectorIxNS_9allocatorIxEEE17__annotate_deleteB8ne180100Ev, symObjAddr: 0x10B0, symBinAddr: 0x100002A84, symSize: 0x10 }
  - { offset: 0x79C6, size: 0x8, addend: 0x0, symName: __ZNSt3__116allocator_traitsINS_9allocatorIxEEE10deallocateB8ne180100ERS2_Pxm, symObjAddr: 0x10C0, symBinAddr: 0x100002A94, symSize: 0x34 }
  - { offset: 0x7A07, size: 0x8, addend: 0x0, symName: __ZNKSt3__16vectorIxNS_9allocatorIxEEE8capacityB8ne180100Ev, symObjAddr: 0x10F4, symBinAddr: 0x100002AC8, symSize: 0x40 }
  - { offset: 0x7A2B, size: 0x8, addend: 0x0, symName: __ZNSt3__16vectorIxNS_9allocatorIxEEE22__base_destruct_at_endB8ne180100EPx, symObjAddr: 0x1134, symBinAddr: 0x100002B08, symSize: 0xA0 }
  - { offset: 0x7A6D, size: 0x8, addend: 0x0, symName: __ZNSt3__116allocator_traitsINS_9allocatorIxEEE7destroyB8ne180100IxvEEvRS2_PT_, symObjAddr: 0x11D4, symBinAddr: 0x100002BA8, symSize: 0x2C }
  - { offset: 0x7AA9, size: 0x8, addend: 0x0, symName: __ZNSt3__19allocatorIxE7destroyB8ne180100EPx, symObjAddr: 0x1200, symBinAddr: 0x100002BD4, symSize: 0x14 }
  - { offset: 0x7ADB, size: 0x8, addend: 0x0, symName: __ZNSt3__19allocatorIxE10deallocateB8ne180100EPxm, symObjAddr: 0x1214, symBinAddr: 0x100002BE8, symSize: 0x70 }
  - { offset: 0x7B1B, size: 0x8, addend: 0x0, symName: __ZNKSt3__16vectorIxNS_9allocatorIxEEE9__end_capB8ne180100Ev, symObjAddr: 0x1300, symBinAddr: 0x100002CD4, symSize: 0x28 }
  - { offset: 0x7B3F, size: 0x8, addend: 0x0, symName: __ZNKSt3__117__compressed_pairIPxNS_9allocatorIxEEE5firstB8ne180100Ev, symObjAddr: 0x1328, symBinAddr: 0x100002CFC, symSize: 0x24 }
  - { offset: 0x7B63, size: 0x8, addend: 0x0, symName: __ZNKSt3__122__compressed_pair_elemIPxLi0ELb0EE5__getB8ne180100Ev, symObjAddr: 0x134C, symBinAddr: 0x100002D20, symSize: 0x14 }
  - { offset: 0x7B87, size: 0x8, addend: 0x0, symName: __ZN24RangeQueryPointUpdateBITD2Ev, symObjAddr: 0x1360, symBinAddr: 0x100002D34, symSize: 0x30 }
  - { offset: 0x7BB1, size: 0x8, addend: 0x0, symName: __ZNSt3__16vectorIxNS_9allocatorIxEEED1B8ne180100Ev, symObjAddr: 0x1390, symBinAddr: 0x100002D64, symSize: 0x2C }
  - { offset: 0x7BD9, size: 0x8, addend: 0x0, symName: __ZNSt3__16vectorIxNS_9allocatorIxEEED2B8ne180100Ev, symObjAddr: 0x13BC, symBinAddr: 0x100002D90, symSize: 0x3C }
  - { offset: 0x7C01, size: 0x8, addend: 0x0, symName: __ZN24RangeQueryPointUpdateBIT6updateEii, symObjAddr: 0x13F8, symBinAddr: 0x100002DCC, symSize: 0x9C }
  - { offset: 0x7C41, size: 0x8, addend: 0x0, symName: __ZNSt3__16vectorIxNS_9allocatorIxEEEixB8ne180100Em, symObjAddr: 0x1494, symBinAddr: 0x100002E68, symSize: 0x24 }
  - { offset: 0x7C76, size: 0x8, addend: 0x0, symName: __ZN3BIT9prefixSumEi, symObjAddr: 0x14B8, symBinAddr: 0x100002E8C, symSize: 0x60 }
  - { offset: 0x7CA8, size: 0x8, addend: 0x0, symName: __ZN24RangeQueryPointUpdateBIT9prefixSumEi, symObjAddr: 0x1518, symBinAddr: 0x100002EEC, symSize: 0x90 }
  - { offset: 0x7CE8, size: 0x8, addend: 0x0, symName: __ZN3BITD2Ev, symObjAddr: 0x15A8, symBinAddr: 0x100002F7C, symSize: 0x6C }
  - { offset: 0x7D30, size: 0x8, addend: 0x0, symName: __ZNKSt3__113basic_ostreamIcNS_11char_traitsIcEEE6sentrycvbB8ne180100Ev, symObjAddr: 0x1808, symBinAddr: 0x1000031DC, symSize: 0x1C }
  - { offset: 0x7D54, size: 0x8, addend: 0x0, symName: __ZNSt3__119ostreambuf_iteratorIcNS_11char_traitsIcEEEC1B8ne180100ERNS_13basic_ostreamIcS2_EE, symObjAddr: 0x1A6C, symBinAddr: 0x100003440, symSize: 0x34 }
  - { offset: 0x7D8A, size: 0x8, addend: 0x0, symName: __ZNKSt3__18ios_base5flagsB8ne180100Ev, symObjAddr: 0x1AA0, symBinAddr: 0x100003474, symSize: 0x18 }
  - { offset: 0x7DB0, size: 0x8, addend: 0x0, symName: __ZNKSt3__19basic_iosIcNS_11char_traitsIcEEE4fillB8ne180100Ev, symObjAddr: 0x1AB8, symBinAddr: 0x10000348C, symSize: 0x64 }
  - { offset: 0x7DD6, size: 0x8, addend: 0x0, symName: __ZNKSt3__119ostreambuf_iteratorIcNS_11char_traitsIcEEE6failedB8ne180100Ev, symObjAddr: 0x1B1C, symBinAddr: 0x1000034F0, symSize: 0x24 }
  - { offset: 0x7DFA, size: 0x8, addend: 0x0, symName: __ZNSt3__19basic_iosIcNS_11char_traitsIcEEE8setstateB8ne180100Ej, symObjAddr: 0x1B40, symBinAddr: 0x100003514, symSize: 0x2C }
  - { offset: 0x7E2D, size: 0x8, addend: 0x0, symName: __ZNKSt3__18ios_base5widthB8ne180100Ev, symObjAddr: 0x1B6C, symBinAddr: 0x100003540, symSize: 0x18 }
  - { offset: 0x7E53, size: 0x8, addend: 0x0, symName: __ZNSt3__115basic_streambufIcNS_11char_traitsIcEEE5sputnB8ne180100EPKcl, symObjAddr: 0x1B84, symBinAddr: 0x100003558, symSize: 0x3C }
  - { offset: 0x7E93, size: 0x8, addend: 0x0, symName: __ZNSt3__112basic_stringIcNS_11char_traitsIcEENS_9allocatorIcEEEC1B8ne180100Emc, symObjAddr: 0x1BC0, symBinAddr: 0x100003594, symSize: 0x3C }
  - { offset: 0x7ED9, size: 0x8, addend: 0x0, symName: __ZNKSt3__112basic_stringIcNS_11char_traitsIcEENS_9allocatorIcEEE4dataB8ne180100Ev, symObjAddr: 0x1BFC, symBinAddr: 0x1000035D0, symSize: 0x28 }
  - { offset: 0x7EFD, size: 0x8, addend: 0x0, symName: __ZNSt3__18ios_base5widthB8ne180100El, symObjAddr: 0x1C24, symBinAddr: 0x1000035F8, symSize: 0x2C }
  - { offset: 0x7F41, size: 0x8, addend: 0x0, symName: __ZNSt3__112basic_stringIcNS_11char_traitsIcEENS_9allocatorIcEEEC2B8ne180100Emc, symObjAddr: 0x1C50, symBinAddr: 0x100003624, symSize: 0x4C }
  - { offset: 0x7F87, size: 0x8, addend: 0x0, symName: __ZNSt3__117__compressed_pairINS_12basic_stringIcNS_11char_traitsIcEENS_9allocatorIcEEE5__repES5_EC1B8ne180100INS_18__default_init_tagESA_EEOT_OT0_, symObjAddr: 0x1C9C, symBinAddr: 0x100003670, symSize: 0x3C }
  - { offset: 0x7FDD, size: 0x8, addend: 0x0, symName: __ZNSt3__117__compressed_pairINS_12basic_stringIcNS_11char_traitsIcEENS_9allocatorIcEEE5__repES5_EC2B8ne180100INS_18__default_init_tagESA_EEOT_OT0_, symObjAddr: 0x1CD8, symBinAddr: 0x1000036AC, symSize: 0x3C }
  - { offset: 0x8033, size: 0x8, addend: 0x0, symName: __ZNSt3__122__compressed_pair_elemINS_12basic_stringIcNS_11char_traitsIcEENS_9allocatorIcEEE5__repELi0ELb0EEC2B8ne180100ENS_18__default_init_tagE, symObjAddr: 0x1D14, symBinAddr: 0x1000036E8, symSize: 0x14 }
  - { offset: 0x8065, size: 0x8, addend: 0x0, symName: __ZNSt3__122__compressed_pair_elemINS_9allocatorIcEELi1ELb1EEC2B8ne180100ENS_18__default_init_tagE, symObjAddr: 0x1D28, symBinAddr: 0x1000036FC, symSize: 0x2C }
  - { offset: 0x8097, size: 0x8, addend: 0x0, symName: __ZNSt3__19allocatorIcEC2B8ne180100Ev, symObjAddr: 0x1D54, symBinAddr: 0x100003728, symSize: 0x2C }
  - { offset: 0x80BF, size: 0x8, addend: 0x0, symName: __ZNSt3__116__non_trivial_ifILb1ENS_9allocatorIcEEEC2B8ne180100Ev, symObjAddr: 0x1D80, symBinAddr: 0x100003754, symSize: 0x14 }
  - { offset: 0x80E7, size: 0x8, addend: 0x0, symName: __ZNKSt3__112basic_stringIcNS_11char_traitsIcEENS_9allocatorIcEEE13__get_pointerB8ne180100Ev, symObjAddr: 0x1DA8, symBinAddr: 0x10000377C, symSize: 0x54 }
  - { offset: 0x810B, size: 0x8, addend: 0x0, symName: __ZNKSt3__112basic_stringIcNS_11char_traitsIcEENS_9allocatorIcEEE9__is_longB8ne180100Ev, symObjAddr: 0x1DFC, symBinAddr: 0x1000037D0, symSize: 0x94 }
  - { offset: 0x812F, size: 0x8, addend: 0x0, symName: __ZNKSt3__112basic_stringIcNS_11char_traitsIcEENS_9allocatorIcEEE18__get_long_pointerB8ne180100Ev, symObjAddr: 0x1E90, symBinAddr: 0x100003864, symSize: 0x28 }
  - { offset: 0x8153, size: 0x8, addend: 0x0, symName: __ZNKSt3__112basic_stringIcNS_11char_traitsIcEENS_9allocatorIcEEE19__get_short_pointerB8ne180100Ev, symObjAddr: 0x1EB8, symBinAddr: 0x10000388C, symSize: 0x28 }
  - { offset: 0x8177, size: 0x8, addend: 0x0, symName: __ZNKSt3__117__compressed_pairINS_12basic_stringIcNS_11char_traitsIcEENS_9allocatorIcEEE5__repES5_E5firstB8ne180100Ev, symObjAddr: 0x1EE0, symBinAddr: 0x1000038B4, symSize: 0x24 }
  - { offset: 0x819B, size: 0x8, addend: 0x0, symName: __ZNKSt3__122__compressed_pair_elemINS_12basic_stringIcNS_11char_traitsIcEENS_9allocatorIcEEE5__repELi0ELb0EE5__getB8ne180100Ev, symObjAddr: 0x1F04, symBinAddr: 0x1000038D8, symSize: 0x14 }
  - { offset: 0x81C0, size: 0x8, addend: 0x0, symName: __ZNSt3__114pointer_traitsIPKcE10pointer_toB8ne180100ERS1_, symObjAddr: 0x1F18, symBinAddr: 0x1000038EC, symSize: 0x14 }
  - { offset: 0x81E2, size: 0x8, addend: 0x0, symName: __ZNSt3__119ostreambuf_iteratorIcNS_11char_traitsIcEEEC2B8ne180100ERNS_13basic_ostreamIcS2_EE, symObjAddr: 0x1F2C, symBinAddr: 0x100003900, symSize: 0x68 }
  - { offset: 0x8218, size: 0x8, addend: 0x0, symName: __ZNKSt3__19basic_iosIcNS_11char_traitsIcEEE5rdbufB8ne180100Ev, symObjAddr: 0x1F94, symBinAddr: 0x100003968, symSize: 0x24 }
  - { offset: 0x823E, size: 0x8, addend: 0x0, symName: __ZNKSt3__18ios_base5rdbufB8ne180100Ev, symObjAddr: 0x1FB8, symBinAddr: 0x10000398C, symSize: 0x18 }
  - { offset: 0x8263, size: 0x8, addend: 0x0, symName: __ZNSt3__111char_traitsIcE11eq_int_typeB8ne180100Eii, symObjAddr: 0x1FD0, symBinAddr: 0x1000039A4, symSize: 0x28 }
  - { offset: 0x8296, size: 0x8, addend: 0x0, symName: __ZNSt3__111char_traitsIcE3eofB8ne180100Ev, symObjAddr: 0x1FF8, symBinAddr: 0x1000039CC, symSize: 0x8 }
  - { offset: 0x82A9, size: 0x8, addend: 0x0, symName: __ZNKSt3__19basic_iosIcNS_11char_traitsIcEEE5widenB8ne180100Ec, symObjAddr: 0x2000, symBinAddr: 0x1000039D4, symSize: 0x8C }
  - { offset: 0x8320, size: 0x8, addend: 0x0, symName: __ZNKSt3__15ctypeIcE5widenB8ne180100Ec, symObjAddr: 0x20B8, symBinAddr: 0x100003A8C, symSize: 0x38 }
  - { offset: 0x8353, size: 0x8, addend: 0x0, symName: __ZNSt3__18ios_base8setstateB8ne180100Ej, symObjAddr: 0x20F0, symBinAddr: 0x100003AC4, symSize: 0x34 }
...
