---
triple:          'arm64-apple-darwin'
binary-path:     '/Users/pattarakultawee.k.aa/Desktop/CLRS/CP/CSES/hotel_queries'
relocations:
  - { offset: 0x563F, size: 0x8, addend: 0x0, symName: __ZNSt3__124__put_character_sequenceB8ne180100IcNS_11char_traitsIcEEEERNS_13basic_ostreamIT_T0_EES7_PKS4_m, symObjAddr: 0x3528, symBinAddr: 0x100006D7C, symSize: 0x1F4 }
  - { offset: 0x66BB, size: 0x8, addend: 0x0, symName: __ZNSt3__1lsB8ne180100INS_11char_traitsIcEEEERNS_13basic_ostreamIcT_EES6_c, symObjAddr: 0x274, symBinAddr: 0x100003AC8, symSize: 0x34 }
  - { offset: 0x6701, size: 0x8, addend: 0x0, symName: __ZNSt3__14endlB8ne180100IcNS_11char_traitsIcEEEERNS_13basic_ostreamIT_T0_EES7_, symObjAddr: 0x4D0, symBinAddr: 0x100003D24, symSize: 0x58 }
  - { offset: 0x6741, size: 0x8, addend: 0x0, symName: __ZNSt3__112__to_addressB8ne180100I10MaxElementEEPT_S3_, symObjAddr: 0x10C8, symBinAddr: 0x10000491C, symSize: 0x14 }
  - { offset: 0x6776, size: 0x8, addend: 0x0, symName: __ZNSt3__13maxB8ne180100ImEERKT_S3_S3_, symObjAddr: 0x12A0, symBinAddr: 0x100004AF4, symSize: 0x2C }
  - { offset: 0x67B9, size: 0x8, addend: 0x0, symName: __ZNSt3__13minB8ne180100ImEERKT_S3_S3_, symObjAddr: 0x12CC, symBinAddr: 0x100004B20, symSize: 0x2C }
  - { offset: 0x69FD, size: 0x8, addend: 0x0, symName: __ZNSt3__13minB8ne180100ImNS_6__lessIvvEEEERKT_S5_S5_T0_, symObjAddr: 0x1358, symBinAddr: 0x100004BAC, symSize: 0x54 }
  - { offset: 0x6ACD, size: 0x8, addend: 0x0, symName: __ZNSt3__120__throw_length_errorB8ne180100EPKc, symObjAddr: 0x1434, symBinAddr: 0x100004C88, symSize: 0x64 }
  - { offset: 0x6AF5, size: 0x8, addend: 0x0, symName: __ZNSt3__13maxB8ne180100ImNS_6__lessIvvEEEERKT_S5_S5_T0_, symObjAddr: 0x1570, symBinAddr: 0x100004DC4, symSize: 0x54 }
  - { offset: 0x6B4F, size: 0x8, addend: 0x0, symName: __ZNSt3__119__allocate_at_leastB8ne180100INS_9allocatorI10MaxElementEEEENS_19__allocation_resultINS_16allocator_traitsIT_E7pointerEEERS6_m, symObjAddr: 0x16D4, symBinAddr: 0x100004F28, symSize: 0x40 }
  - { offset: 0x6B92, size: 0x8, addend: 0x0, symName: __ZNSt3__130__libcpp_is_constant_evaluatedB8ne180100Ev, symObjAddr: 0x1884, symBinAddr: 0x1000050D8, symSize: 0xC }
  - { offset: 0x6BAF, size: 0x8, addend: 0x0, symName: __ZNSt3__117__libcpp_allocateB8ne180100Emm, symObjAddr: 0x1890, symBinAddr: 0x1000050E4, symSize: 0x28 }
  - { offset: 0x6BEC, size: 0x8, addend: 0x0, symName: __ZNSt3__121__libcpp_operator_newB8ne180100IJmEEEPvDpT_, symObjAddr: 0x18B8, symBinAddr: 0x10000510C, symSize: 0x24 }
  - { offset: 0x6C25, size: 0x8, addend: 0x0, symName: __ZNSt3__142__uninitialized_allocator_move_if_noexceptB8ne180100INS_9allocatorI10MaxElementEENS_16reverse_iteratorIPS2_EES6_S2_vEET1_RT_T0_SA_S7_, symObjAddr: 0x1A1C, symBinAddr: 0x100005270, symSize: 0xE8 }
  - { offset: 0x6CA2, size: 0x8, addend: 0x0, symName: __ZNSt3__14swapB8ne180100IP10MaxElementEEvRT_S4_, symObjAddr: 0x1B50, symBinAddr: 0x1000053A4, symSize: 0x3C }
  - { offset: 0x6CF3, size: 0x8, addend: 0x0, symName: __ZNSt3__1neB8ne180100IP10MaxElementS2_EEbRKNS_16reverse_iteratorIT_EERKNS3_IT0_EE, symObjAddr: 0x1BA0, symBinAddr: 0x1000053F4, symSize: 0x48 }
  - { offset: 0x6D3F, size: 0x8, addend: 0x0, symName: __ZNSt3__114__construct_atB8ne180100I10MaxElementJS1_EPS1_EEPT_S4_DpOT0_, symObjAddr: 0x1BE8, symBinAddr: 0x10000543C, symSize: 0x24 }
  - { offset: 0x6D92, size: 0x8, addend: 0x0, symName: __ZNSt3__112__to_addressB8ne180100INS_16reverse_iteratorIP10MaxElementEEvEEu7__decayIDTclsr19__to_address_helperIT_EE6__callclsr3stdE7declvalIRKS5_EEEEES7_, symObjAddr: 0x1C0C, symBinAddr: 0x100005460, symSize: 0x24 }
  - { offset: 0x6DC8, size: 0x8, addend: 0x0, symName: __ZNSt3__14moveB8ne180100INS_16reverse_iteratorIP10MaxElementEES4_EET0_T_S6_S5_, symObjAddr: 0x1C78, symBinAddr: 0x1000054CC, symSize: 0x78 }
  - { offset: 0x6E4B, size: 0x8, addend: 0x0, symName: __ZNSt3__16__moveB8ne180100INS_17_ClassicAlgPolicyENS_16reverse_iteratorIP10MaxElementEES5_S5_EENS_4pairIT0_T2_EES7_T1_S8_, symObjAddr: 0x1D60, symBinAddr: 0x1000055B4, symSize: 0x64 }
  - { offset: 0x6EB7, size: 0x8, addend: 0x0, symName: __ZNSt3__123__dispatch_copy_or_moveB8ne180100INS_17_ClassicAlgPolicyENS_11__move_loopIS1_EENS_14__move_trivialENS_16reverse_iteratorIP10MaxElementEES8_S8_EENS_4pairIT2_T4_EESA_T3_SB_, symObjAddr: 0x1DC4, symBinAddr: 0x100005618, symSize: 0x64 }
  - { offset: 0x6F35, size: 0x8, addend: 0x0, symName: __ZNSt3__121__unwrap_and_dispatchB8ne180100INS_10__overloadINS_11__move_loopINS_17_ClassicAlgPolicyEEENS_14__move_trivialEEENS_16reverse_iteratorIP10MaxElementEESA_SA_Li0EEENS_4pairIT0_T2_EESC_T1_SD_, symObjAddr: 0x1E28, symBinAddr: 0x10000567C, symSize: 0x12C }
  - { offset: 0x6FC5, size: 0x8, addend: 0x0, symName: __ZNSt3__114__unwrap_rangeB8ne180100INS_16reverse_iteratorIP10MaxElementEES4_EENS_4pairIT0_S6_EET_S8_, symObjAddr: 0x1F54, symBinAddr: 0x1000057A8, symSize: 0x84 }
  - { offset: 0x7119, size: 0x8, addend: 0x0, symName: __ZNSt3__113__unwrap_iterB8ne180100INS_16reverse_iteratorIP10MaxElementEENS_18__unwrap_iter_implIS4_Lb0EEELi0EEEDTclsrT0_8__unwrapclsr3stdE7declvalIT_EEEES8_, symObjAddr: 0x2078, symBinAddr: 0x1000058CC, symSize: 0x44 }
  - { offset: 0x715D, size: 0x8, addend: 0x0, symName: __ZNSt3__19make_pairB8ne180100INS_16reverse_iteratorIP10MaxElementEES4_EENS_4pairINS_18__unwrap_ref_decayIT_E4typeENS6_IT0_E4typeEEEOS7_OSA_, symObjAddr: 0x20BC, symBinAddr: 0x100005910, symSize: 0x38 }
  - { offset: 0x71AC, size: 0x8, addend: 0x0, symName: __ZNSt3__114__rewrap_rangeB8ne180100INS_16reverse_iteratorIP10MaxElementEES4_EET_S5_T0_, symObjAddr: 0x20F4, symBinAddr: 0x100005948, symSize: 0x5C }
  - { offset: 0x71F8, size: 0x8, addend: 0x0, symName: __ZNSt3__113__rewrap_iterB8ne180100INS_16reverse_iteratorIP10MaxElementEES4_NS_18__unwrap_iter_implIS4_Lb0EEEEET_S7_T0_, symObjAddr: 0x2150, symBinAddr: 0x1000059A4, symSize: 0x88 }
  - { offset: 0x72F7, size: 0x8, addend: 0x0, symName: __ZNSt3__119__libcpp_deallocateB8ne180100EPvmm, symObjAddr: 0x2578, symBinAddr: 0x100005DCC, symSize: 0x30 }
  - { offset: 0x733F, size: 0x8, addend: 0x0, symName: __ZNSt3__127__do_deallocate_handle_sizeB8ne180100IJEEEvPvmDpT_, symObjAddr: 0x25A8, symBinAddr: 0x100005DFC, symSize: 0x28 }
  - { offset: 0x737D, size: 0x8, addend: 0x0, symName: __ZNSt3__124__libcpp_operator_deleteB8ne180100IJPvEEEvDpT_, symObjAddr: 0x25D0, symBinAddr: 0x100005E24, symSize: 0x24 }
  - { offset: 0x73B2, size: 0x8, addend: 0x0, symName: __ZNSt3__13maxB8ne180100IiEERKT_S3_S3_, symObjAddr: 0x2714, symBinAddr: 0x100005F68, symSize: 0x2C }
  - { offset: 0x73F5, size: 0x8, addend: 0x0, symName: __ZNSt3__13maxB8ne180100IiNS_6__lessIvvEEEERKT_S5_S5_T0_, symObjAddr: 0x2740, symBinAddr: 0x100005F94, symSize: 0x54 }
  - { offset: 0x744F, size: 0x8, addend: 0x0, symName: __ZNSt3__122__make_exception_guardB8ne180100INS_6vectorIiNS_9allocatorIiEEE16__destroy_vectorEEENS_28__exception_guard_exceptionsIT_EES7_, symObjAddr: 0x2A58, symBinAddr: 0x1000062AC, symSize: 0x40 }
  - { offset: 0x7484, size: 0x8, addend: 0x0, symName: __ZNSt3__119__allocate_at_leastB8ne180100INS_9allocatorIiEEEENS_19__allocation_resultINS_16allocator_traitsIT_E7pointerEEERS5_m, symObjAddr: 0x2E60, symBinAddr: 0x1000066B4, symSize: 0x40 }
  - { offset: 0x74C7, size: 0x8, addend: 0x0, symName: __ZNSt3__112__to_addressB8ne180100IiEEPT_S2_, symObjAddr: 0x30F8, symBinAddr: 0x10000694C, symSize: 0x14 }
  - { offset: 0x74FC, size: 0x8, addend: 0x0, symName: __ZNSt3__116__pad_and_outputB8ne180100IcNS_11char_traitsIcEEEENS_19ostreambuf_iteratorIT_T0_EES6_PKS4_S8_S8_RNS_8ios_baseES4_, symObjAddr: 0x3738, symBinAddr: 0x100006F8C, symSize: 0x248 }
  - { offset: 0x75CB, size: 0x8, addend: 0x0, symName: __ZNSt3__112__to_addressB8ne180100IKcEEPT_S3_, symObjAddr: 0x3CA8, symBinAddr: 0x1000074FC, symSize: 0x14 }
  - { offset: 0x7633, size: 0x8, addend: 0x0, symName: __ZNSt3__19use_facetB8ne180100INS_5ctypeIcEEEERKT_RKNS_6localeE, symObjAddr: 0x3FA0, symBinAddr: 0x1000077F4, symSize: 0x2C }
  - { offset: 0x886D, size: 0x8, addend: 0x0, symName: __ZSt28__throw_bad_array_new_lengthB8ne180100v, symObjAddr: 0x1850, symBinAddr: 0x1000050A4, symSize: 0x34 }
  - { offset: 0x8E36, size: 0x8, addend: 0x0, symName: __ZNSt3__16vectorI10MaxElementNS_9allocatorIS1_EEE26__swap_out_circular_bufferERNS_14__split_bufferIS1_RS3_EE, symObjAddr: 0xEEC, symBinAddr: 0x100004740, symSize: 0x110 }
  - { offset: 0x8FB4, size: 0x8, addend: 0x0, symName: _main, symObjAddr: 0x0, symBinAddr: 0x100003854, symSize: 0x1BC }
  - { offset: 0x9036, size: 0x8, addend: 0x0, symName: __ZNSt3__19basic_iosIcNS_11char_traitsIcEEE3tieB8ne180100EPNS_13basic_ostreamIcS2_EE, symObjAddr: 0x1BC, symBinAddr: 0x100003A10, symSize: 0x2C }
  - { offset: 0x907A, size: 0x8, addend: 0x0, symName: __ZNSt3__16vectorIiNS_9allocatorIiEEEC1Em, symObjAddr: 0x1E8, symBinAddr: 0x100003A3C, symSize: 0x34 }
  - { offset: 0x90B3, size: 0x8, addend: 0x0, symName: __ZNSt3__16vectorIiNS_9allocatorIiEEEixB8ne180100Em, symObjAddr: 0x21C, symBinAddr: 0x100003A70, symSize: 0x24 }
  - { offset: 0x9152, size: 0x8, addend: 0x0, symName: __ZN2StC1ERNSt3__16vectorIiNS0_9allocatorIiEEEE, symObjAddr: 0x240, symBinAddr: 0x100003A94, symSize: 0x34 }
  - { offset: 0x9188, size: 0x8, addend: 0x0, symName: __ZN2St11queryUpdateEi, symObjAddr: 0x2A8, symBinAddr: 0x100003AFC, symSize: 0x1FC }
  - { offset: 0x91D6, size: 0x8, addend: 0x0, symName: __ZNSt3__113basic_ostreamIcNS_11char_traitsIcEEElsB8ne180100EPFRS3_S4_E, symObjAddr: 0x4A4, symBinAddr: 0x100003CF8, symSize: 0x2C }
  - { offset: 0x9208, size: 0x8, addend: 0x0, symName: __ZN2StD1Ev, symObjAddr: 0x528, symBinAddr: 0x100003D7C, symSize: 0x2C }
  - { offset: 0x9232, size: 0x8, addend: 0x0, symName: __ZNSt3__16vectorIiNS_9allocatorIiEEED1B8ne180100Ev, symObjAddr: 0x564, symBinAddr: 0x100003DB8, symSize: 0x2C }
  - { offset: 0x925A, size: 0x8, addend: 0x0, symName: __ZN2StC2ERNSt3__16vectorIiNS0_9allocatorIiEEEE, symObjAddr: 0x590, symBinAddr: 0x100003DE4, symSize: 0x204 }
  - { offset: 0x92C9, size: 0x8, addend: 0x0, symName: __ZNKSt3__16vectorIiNS_9allocatorIiEEE4sizeB8ne180100Ev, symObjAddr: 0x794, symBinAddr: 0x100003FE8, symSize: 0x28 }
  - { offset: 0x92ED, size: 0x8, addend: 0x0, symName: __ZNSt3__16vectorI10MaxElementNS_9allocatorIS1_EEEC1B8ne180100Ev, symObjAddr: 0x7BC, symBinAddr: 0x100004010, symSize: 0x2C }
  - { offset: 0x9315, size: 0x8, addend: 0x0, symName: __ZNSt3__16vectorI10MaxElementNS_9allocatorIS1_EEE6resizeEm, symObjAddr: 0x7E8, symBinAddr: 0x10000403C, symSize: 0x94 }
  - { offset: 0x9359, size: 0x8, addend: 0x0, symName: __ZN10MaxElementC1Ei, symObjAddr: 0x87C, symBinAddr: 0x1000040D0, symSize: 0x34 }
  - { offset: 0x938F, size: 0x8, addend: 0x0, symName: __ZNSt3__16vectorI10MaxElementNS_9allocatorIS1_EEEixB8ne180100Em, symObjAddr: 0x8B0, symBinAddr: 0x100004104, symSize: 0x24 }
  - { offset: 0x93C4, size: 0x8, addend: 0x0, symName: __ZN10MaxElementplERKS_, symObjAddr: 0x8D4, symBinAddr: 0x100004128, symSize: 0x4C }
  - { offset: 0x9404, size: 0x8, addend: 0x0, symName: __ZNSt3__16vectorI10MaxElementNS_9allocatorIS1_EEED1B8ne180100Ev, symObjAddr: 0x920, symBinAddr: 0x100004174, symSize: 0x2C }
  - { offset: 0x942C, size: 0x8, addend: 0x0, symName: __ZNSt3__16vectorI10MaxElementNS_9allocatorIS1_EEEC2B8ne180100Ev, symObjAddr: 0x94C, symBinAddr: 0x1000041A0, symSize: 0x44 }
  - { offset: 0x9464, size: 0x8, addend: 0x0, symName: __ZNSt3__117__compressed_pairIP10MaxElementNS_9allocatorIS1_EEEC1B8ne180100IDnNS_18__default_init_tagEEEOT_OT0_, symObjAddr: 0x990, symBinAddr: 0x1000041E4, symSize: 0x3C }
  - { offset: 0x94BA, size: 0x8, addend: 0x0, symName: __ZNSt3__117__compressed_pairIP10MaxElementNS_9allocatorIS1_EEEC2B8ne180100IDnNS_18__default_init_tagEEEOT_OT0_, symObjAddr: 0x9CC, symBinAddr: 0x100004220, symSize: 0x40 }
  - { offset: 0x9511, size: 0x8, addend: 0x0, symName: __ZNSt3__122__compressed_pair_elemIP10MaxElementLi0ELb0EEC2B8ne180100IDnvEEOT_, symObjAddr: 0xA0C, symBinAddr: 0x100004260, symSize: 0x1C }
  - { offset: 0x9551, size: 0x8, addend: 0x0, symName: __ZNSt3__122__compressed_pair_elemINS_9allocatorI10MaxElementEELi1ELb1EEC2B8ne180100ENS_18__default_init_tagE, symObjAddr: 0xA28, symBinAddr: 0x10000427C, symSize: 0x2C }
  - { offset: 0x9584, size: 0x8, addend: 0x0, symName: __ZNSt3__19allocatorI10MaxElementEC2B8ne180100Ev, symObjAddr: 0xA54, symBinAddr: 0x1000042A8, symSize: 0x2C }
  - { offset: 0x95AD, size: 0x8, addend: 0x0, symName: __ZNSt3__116__non_trivial_ifILb1ENS_9allocatorI10MaxElementEEEC2B8ne180100Ev, symObjAddr: 0xA80, symBinAddr: 0x1000042D4, symSize: 0x14 }
  - { offset: 0x95D6, size: 0x8, addend: 0x0, symName: __ZNKSt3__16vectorI10MaxElementNS_9allocatorIS1_EEE4sizeB8ne180100Ev, symObjAddr: 0xA94, symBinAddr: 0x1000042E8, symSize: 0x28 }
  - { offset: 0x95FA, size: 0x8, addend: 0x0, symName: __ZNSt3__16vectorI10MaxElementNS_9allocatorIS1_EEE8__appendEm, symObjAddr: 0xABC, symBinAddr: 0x100004310, symSize: 0x110 }
  - { offset: 0x9653, size: 0x8, addend: 0x0, symName: __ZNSt3__16vectorI10MaxElementNS_9allocatorIS1_EEE17__destruct_at_endB8ne180100EPS1_, symObjAddr: 0xBCC, symBinAddr: 0x100004420, symSize: 0x4C }
  - { offset: 0x9695, size: 0x8, addend: 0x0, symName: __ZNSt3__16vectorI10MaxElementNS_9allocatorIS1_EEE9__end_capB8ne180100Ev, symObjAddr: 0xC18, symBinAddr: 0x10000446C, symSize: 0x28 }
  - { offset: 0x96B9, size: 0x8, addend: 0x0, symName: __ZNSt3__16vectorI10MaxElementNS_9allocatorIS1_EEE18__construct_at_endEm, symObjAddr: 0xC40, symBinAddr: 0x100004494, symSize: 0xD0 }
  - { offset: 0x9729, size: 0x8, addend: 0x0, symName: __ZNSt3__16vectorI10MaxElementNS_9allocatorIS1_EEE7__allocB8ne180100Ev, symObjAddr: 0xD10, symBinAddr: 0x100004564, symSize: 0x28 }
  - { offset: 0x974D, size: 0x8, addend: 0x0, symName: __ZNKSt3__16vectorI10MaxElementNS_9allocatorIS1_EEE11__recommendB8ne180100Em, symObjAddr: 0xD38, symBinAddr: 0x10000458C, symSize: 0xB4 }
  - { offset: 0x97A0, size: 0x8, addend: 0x0, symName: __ZNSt3__114__split_bufferI10MaxElementRNS_9allocatorIS1_EEEC1EmmS4_, symObjAddr: 0xDEC, symBinAddr: 0x100004640, symSize: 0x44 }
  - { offset: 0x97F5, size: 0x8, addend: 0x0, symName: __ZNSt3__114__split_bufferI10MaxElementRNS_9allocatorIS1_EEE18__construct_at_endEm, symObjAddr: 0xE30, symBinAddr: 0x100004684, symSize: 0xBC }
  - { offset: 0x9836, size: 0x8, addend: 0x0, symName: __ZNSt3__114__split_bufferI10MaxElementRNS_9allocatorIS1_EEED1Ev, symObjAddr: 0xFFC, symBinAddr: 0x100004850, symSize: 0x2C }
  - { offset: 0x9860, size: 0x8, addend: 0x0, symName: __ZNSt3__117__compressed_pairIP10MaxElementNS_9allocatorIS1_EEE5firstB8ne180100Ev, symObjAddr: 0x1028, symBinAddr: 0x10000487C, symSize: 0x24 }
  - { offset: 0x9885, size: 0x8, addend: 0x0, symName: __ZNSt3__122__compressed_pair_elemIP10MaxElementLi0ELb0EE5__getB8ne180100Ev, symObjAddr: 0x104C, symBinAddr: 0x1000048A0, symSize: 0x14 }
  - { offset: 0x98C2, size: 0x8, addend: 0x0, symName: __ZNSt3__16vectorI10MaxElementNS_9allocatorIS1_EEE21_ConstructTransactionC1B8ne180100ERS4_m, symObjAddr: 0x1060, symBinAddr: 0x1000048B4, symSize: 0x3C }
  - { offset: 0x9909, size: 0x8, addend: 0x0, symName: __ZNSt3__116allocator_traitsINS_9allocatorI10MaxElementEEE9constructB8ne180100IS2_JEvEEvRS3_PT_DpOT0_, symObjAddr: 0x109C, symBinAddr: 0x1000048F0, symSize: 0x2C }
  - { offset: 0x994A, size: 0x8, addend: 0x0, symName: __ZNSt3__16vectorI10MaxElementNS_9allocatorIS1_EEE21_ConstructTransactionD1B8ne180100Ev, symObjAddr: 0x10DC, symBinAddr: 0x100004930, symSize: 0x2C }
  - { offset: 0x9973, size: 0x8, addend: 0x0, symName: __ZNSt3__16vectorI10MaxElementNS_9allocatorIS1_EEE21_ConstructTransactionC2B8ne180100ERS4_m, symObjAddr: 0x1108, symBinAddr: 0x10000495C, symSize: 0x44 }
  - { offset: 0x99B9, size: 0x8, addend: 0x0, symName: __ZNSt3__19allocatorI10MaxElementE9constructB8ne180100IS1_JEEEvPT_DpOT0_, symObjAddr: 0x114C, symBinAddr: 0x1000049A0, symSize: 0x2C }
  - { offset: 0x99FA, size: 0x8, addend: 0x0, symName: __ZNSt3__16vectorI10MaxElementNS_9allocatorIS1_EEE21_ConstructTransactionD2B8ne180100Ev, symObjAddr: 0x1178, symBinAddr: 0x1000049CC, symSize: 0x20 }
  - { offset: 0x9A22, size: 0x8, addend: 0x0, symName: __ZNSt3__117__compressed_pairIP10MaxElementNS_9allocatorIS1_EEE6secondB8ne180100Ev, symObjAddr: 0x1198, symBinAddr: 0x1000049EC, symSize: 0x24 }
  - { offset: 0x9A47, size: 0x8, addend: 0x0, symName: __ZNSt3__122__compressed_pair_elemINS_9allocatorI10MaxElementEELi1ELb1EE5__getB8ne180100Ev, symObjAddr: 0x11BC, symBinAddr: 0x100004A10, symSize: 0x14 }
  - { offset: 0x9A6B, size: 0x8, addend: 0x0, symName: __ZNKSt3__16vectorI10MaxElementNS_9allocatorIS1_EEE8max_sizeEv, symObjAddr: 0x11D0, symBinAddr: 0x100004A24, symSize: 0x74 }
  - { offset: 0x9A91, size: 0x8, addend: 0x0, symName: __ZNKSt3__16vectorI10MaxElementNS_9allocatorIS1_EEE20__throw_length_errorB8ne180100Ev, symObjAddr: 0x1244, symBinAddr: 0x100004A98, symSize: 0x1C }
  - { offset: 0x9AB5, size: 0x8, addend: 0x0, symName: __ZNKSt3__16vectorI10MaxElementNS_9allocatorIS1_EEE8capacityB8ne180100Ev, symObjAddr: 0x1260, symBinAddr: 0x100004AB4, symSize: 0x40 }
  - { offset: 0x9AE4, size: 0x8, addend: 0x0, symName: __ZNSt3__116allocator_traitsINS_9allocatorI10MaxElementEEE8max_sizeB8ne180100IS3_vEEmRKS3_, symObjAddr: 0x12F8, symBinAddr: 0x100004B4C, symSize: 0x24 }
  - { offset: 0x9B11, size: 0x8, addend: 0x0, symName: __ZNKSt3__16vectorI10MaxElementNS_9allocatorIS1_EEE7__allocB8ne180100Ev, symObjAddr: 0x131C, symBinAddr: 0x100004B70, symSize: 0x28 }
  - { offset: 0x9B36, size: 0x8, addend: 0x0, symName: __ZNSt3__114numeric_limitsIlE3maxB8ne180100Ev, symObjAddr: 0x1344, symBinAddr: 0x100004B98, symSize: 0x14 }
  - { offset: 0x9B5E, size: 0x8, addend: 0x0, symName: __ZNKSt3__16__lessIvvEclB8ne180100ImmEEbRKT_RKT0_, symObjAddr: 0x13AC, symBinAddr: 0x100004C00, symSize: 0x34 }
  - { offset: 0x9BB1, size: 0x8, addend: 0x0, symName: __ZNKSt3__19allocatorI10MaxElementE8max_sizeB8ne180100Ev, symObjAddr: 0x13E0, symBinAddr: 0x100004C34, symSize: 0x14 }
  - { offset: 0x9BD5, size: 0x8, addend: 0x0, symName: __ZNKSt3__117__compressed_pairIP10MaxElementNS_9allocatorIS1_EEE6secondB8ne180100Ev, symObjAddr: 0x13F4, symBinAddr: 0x100004C48, symSize: 0x24 }
  - { offset: 0x9BFA, size: 0x8, addend: 0x0, symName: __ZNKSt3__122__compressed_pair_elemINS_9allocatorI10MaxElementEELi1ELb1EE5__getB8ne180100Ev, symObjAddr: 0x1418, symBinAddr: 0x100004C6C, symSize: 0x14 }
  - { offset: 0x9C1F, size: 0x8, addend: 0x0, symName: __ZNSt3__123__libcpp_numeric_limitsIlLb1EE3maxB8ne180100Ev, symObjAddr: 0x142C, symBinAddr: 0x100004C80, symSize: 0x8 }
  - { offset: 0x9C32, size: 0x8, addend: 0x0, symName: __ZNSt12length_errorC1B8ne180100EPKc, symObjAddr: 0x1498, symBinAddr: 0x100004CEC, symSize: 0x34 }
  - { offset: 0x9C68, size: 0x8, addend: 0x0, symName: __ZNSt12length_errorC2B8ne180100EPKc, symObjAddr: 0x14CC, symBinAddr: 0x100004D20, symSize: 0x44 }
  - { offset: 0x9C9E, size: 0x8, addend: 0x0, symName: __ZNKSt3__16vectorI10MaxElementNS_9allocatorIS1_EEE9__end_capB8ne180100Ev, symObjAddr: 0x1510, symBinAddr: 0x100004D64, symSize: 0x28 }
  - { offset: 0x9CC2, size: 0x8, addend: 0x0, symName: __ZNKSt3__117__compressed_pairIP10MaxElementNS_9allocatorIS1_EEE5firstB8ne180100Ev, symObjAddr: 0x1538, symBinAddr: 0x100004D8C, symSize: 0x24 }
  - { offset: 0x9CE7, size: 0x8, addend: 0x0, symName: __ZNKSt3__122__compressed_pair_elemIP10MaxElementLi0ELb0EE5__getB8ne180100Ev, symObjAddr: 0x155C, symBinAddr: 0x100004DB0, symSize: 0x14 }
  - { offset: 0x9D0B, size: 0x8, addend: 0x0, symName: __ZNSt3__114__split_bufferI10MaxElementRNS_9allocatorIS1_EEEC2EmmS4_, symObjAddr: 0x15C4, symBinAddr: 0x100004E18, symSize: 0xD4 }
  - { offset: 0x9D7C, size: 0x8, addend: 0x0, symName: __ZNSt3__117__compressed_pairIP10MaxElementRNS_9allocatorIS1_EEEC1B8ne180100IDnS5_EEOT_OT0_, symObjAddr: 0x1698, symBinAddr: 0x100004EEC, symSize: 0x3C }
  - { offset: 0x9DD2, size: 0x8, addend: 0x0, symName: __ZNSt3__114__split_bufferI10MaxElementRNS_9allocatorIS1_EEE7__allocB8ne180100Ev, symObjAddr: 0x1714, symBinAddr: 0x100004F68, symSize: 0x28 }
  - { offset: 0x9DF6, size: 0x8, addend: 0x0, symName: __ZNSt3__114__split_bufferI10MaxElementRNS_9allocatorIS1_EEE9__end_capB8ne180100Ev, symObjAddr: 0x173C, symBinAddr: 0x100004F90, symSize: 0x28 }
  - { offset: 0x9E1A, size: 0x8, addend: 0x0, symName: __ZNSt3__117__compressed_pairIP10MaxElementRNS_9allocatorIS1_EEEC2B8ne180100IDnS5_EEOT_OT0_, symObjAddr: 0x1764, symBinAddr: 0x100004FB8, symSize: 0x48 }
  - { offset: 0x9E71, size: 0x8, addend: 0x0, symName: __ZNSt3__122__compressed_pair_elemIRNS_9allocatorI10MaxElementEELi1ELb0EEC2B8ne180100IS4_vEEOT_, symObjAddr: 0x17AC, symBinAddr: 0x100005000, symSize: 0x20 }
  - { offset: 0x9EB1, size: 0x8, addend: 0x0, symName: __ZNSt3__19allocatorI10MaxElementE8allocateB8ne180100Em, symObjAddr: 0x17CC, symBinAddr: 0x100005020, symSize: 0x84 }
  - { offset: 0x9EE3, size: 0x8, addend: 0x0, symName: __ZNSt3__117__compressed_pairIP10MaxElementRNS_9allocatorIS1_EEE6secondB8ne180100Ev, symObjAddr: 0x18DC, symBinAddr: 0x100005130, symSize: 0x28 }
  - { offset: 0x9F08, size: 0x8, addend: 0x0, symName: __ZNSt3__122__compressed_pair_elemIRNS_9allocatorI10MaxElementEELi1ELb0EE5__getB8ne180100Ev, symObjAddr: 0x1904, symBinAddr: 0x100005158, symSize: 0x18 }
  - { offset: 0x9F2C, size: 0x8, addend: 0x0, symName: __ZNSt3__117__compressed_pairIP10MaxElementRNS_9allocatorIS1_EEE5firstB8ne180100Ev, symObjAddr: 0x191C, symBinAddr: 0x100005170, symSize: 0x24 }
  - { offset: 0x9F5A, size: 0x8, addend: 0x0, symName: __ZNSt3__114__split_bufferI10MaxElementRNS_9allocatorIS1_EEE21_ConstructTransactionC1B8ne180100EPPS1_m, symObjAddr: 0x1940, symBinAddr: 0x100005194, symSize: 0x3C }
  - { offset: 0x9F9E, size: 0x8, addend: 0x0, symName: __ZNSt3__114__split_bufferI10MaxElementRNS_9allocatorIS1_EEE21_ConstructTransactionD1B8ne180100Ev, symObjAddr: 0x197C, symBinAddr: 0x1000051D0, symSize: 0x2C }
  - { offset: 0x9FC7, size: 0x8, addend: 0x0, symName: __ZNSt3__114__split_bufferI10MaxElementRNS_9allocatorIS1_EEE21_ConstructTransactionC2B8ne180100EPPS1_m, symObjAddr: 0x19A8, symBinAddr: 0x1000051FC, symSize: 0x44 }
  - { offset: 0xA00C, size: 0x8, addend: 0x0, symName: __ZNSt3__114__split_bufferI10MaxElementRNS_9allocatorIS1_EEE21_ConstructTransactionD2B8ne180100Ev, symObjAddr: 0x19EC, symBinAddr: 0x100005240, symSize: 0x20 }
  - { offset: 0xA035, size: 0x8, addend: 0x0, symName: __ZNKSt3__16vectorI10MaxElementNS_9allocatorIS1_EEE17__annotate_deleteB8ne180100Ev, symObjAddr: 0x1A0C, symBinAddr: 0x100005260, symSize: 0x10 }
  - { offset: 0xA059, size: 0x8, addend: 0x0, symName: __ZNSt3__116reverse_iteratorIP10MaxElementEC1B8ne180100ES2_, symObjAddr: 0x1B04, symBinAddr: 0x100005358, symSize: 0x34 }
  - { offset: 0xA090, size: 0x8, addend: 0x0, symName: __ZNKSt3__116reverse_iteratorIP10MaxElementE4baseB8ne180100Ev, symObjAddr: 0x1B38, symBinAddr: 0x10000538C, symSize: 0x18 }
  - { offset: 0xA0B5, size: 0x8, addend: 0x0, symName: __ZNKSt3__16vectorI10MaxElementNS_9allocatorIS1_EEE14__annotate_newB8ne180100Em, symObjAddr: 0x1B8C, symBinAddr: 0x1000053E0, symSize: 0x14 }
  - { offset: 0xA0E9, size: 0x8, addend: 0x0, symName: __ZNKSt3__116reverse_iteratorIP10MaxElementEdeB8ne180100Ev, symObjAddr: 0x1C30, symBinAddr: 0x100005484, symSize: 0x28 }
  - { offset: 0xA11C, size: 0x8, addend: 0x0, symName: __ZNSt3__116reverse_iteratorIP10MaxElementEppB8ne180100Ev, symObjAddr: 0x1C58, symBinAddr: 0x1000054AC, symSize: 0x20 }
  - { offset: 0xA146, size: 0x8, addend: 0x0, symName: __ZNSt3__119__to_address_helperINS_16reverse_iteratorIP10MaxElementEEvE6__callB8ne180100ERKS4_, symObjAddr: 0x1CF0, symBinAddr: 0x100005544, symSize: 0x4C }
  - { offset: 0xA168, size: 0x8, addend: 0x0, symName: __ZNKSt3__116reverse_iteratorIP10MaxElementEptB8ne180100Ev, symObjAddr: 0x1D3C, symBinAddr: 0x100005590, symSize: 0x24 }
  - { offset: 0xA1AF, size: 0x8, addend: 0x0, symName: __ZNKSt3__111__move_loopINS_17_ClassicAlgPolicyEEclB8ne180100INS_16reverse_iteratorIP10MaxElementEES7_S7_EENS_4pairIT_T1_EES9_T0_SA_, symObjAddr: 0x1FD8, symBinAddr: 0x10000582C, symSize: 0xA0 }
  - { offset: 0xA21E, size: 0x8, addend: 0x0, symName: __ZNSt3__18_IterOpsINS_17_ClassicAlgPolicyEE11__iter_moveB8ne180100IRNS_16reverse_iteratorIP10MaxElementEELi0EEEDTclsr3stdE4movedeclsr3stdE7declvalIRT_EEEEOS9_, symObjAddr: 0x21D8, symBinAddr: 0x100005A2C, symSize: 0x28 }
  - { offset: 0xA250, size: 0x8, addend: 0x0, symName: __ZNSt3__18_IterOpsINS_17_ClassicAlgPolicyEE25__validate_iter_referenceB8ne180100IRNS_16reverse_iteratorIP10MaxElementEEEEvv, symObjAddr: 0x2200, symBinAddr: 0x100005A54, symSize: 0x4 }
  - { offset: 0xA26E, size: 0x8, addend: 0x0, symName: __ZNSt3__118__unwrap_iter_implINS_16reverse_iteratorIP10MaxElementEELb0EE8__unwrapB8ne180100ES4_, symObjAddr: 0x2204, symBinAddr: 0x100005A58, symSize: 0x24 }
  - { offset: 0xA290, size: 0x8, addend: 0x0, symName: __ZNSt3__14pairINS_16reverse_iteratorIP10MaxElementEES4_EC1B8ne180100ERKS4_S7_, symObjAddr: 0x2228, symBinAddr: 0x100005A7C, symSize: 0x3C }
  - { offset: 0xA2D5, size: 0x8, addend: 0x0, symName: __ZNSt3__14pairINS_16reverse_iteratorIP10MaxElementEES4_EC2B8ne180100ERKS4_S7_, symObjAddr: 0x2264, symBinAddr: 0x100005AB8, symSize: 0x34 }
  - { offset: 0xA31A, size: 0x8, addend: 0x0, symName: __ZNSt3__118__unwrap_iter_implINS_16reverse_iteratorIP10MaxElementEELb0EE8__rewrapB8ne180100ES4_S4_, symObjAddr: 0x2298, symBinAddr: 0x100005AEC, symSize: 0x2C }
  - { offset: 0xA348, size: 0x8, addend: 0x0, symName: __ZNSt3__116reverse_iteratorIP10MaxElementEC2B8ne180100ES2_, symObjAddr: 0x22C4, symBinAddr: 0x100005B18, symSize: 0x28 }
  - { offset: 0xA37E, size: 0x8, addend: 0x0, symName: __ZNSt3__114__split_bufferI10MaxElementRNS_9allocatorIS1_EEED2Ev, symObjAddr: 0x22EC, symBinAddr: 0x100005B40, symSize: 0x80 }
  - { offset: 0xA3A8, size: 0x8, addend: 0x0, symName: __ZNSt3__114__split_bufferI10MaxElementRNS_9allocatorIS1_EEE5clearB8ne180100Ev, symObjAddr: 0x236C, symBinAddr: 0x100005BC0, symSize: 0x28 }
  - { offset: 0xA3CD, size: 0x8, addend: 0x0, symName: __ZNSt3__116allocator_traitsINS_9allocatorI10MaxElementEEE10deallocateB8ne180100ERS3_PS2_m, symObjAddr: 0x2394, symBinAddr: 0x100005BE8, symSize: 0x34 }
  - { offset: 0xA40E, size: 0x8, addend: 0x0, symName: __ZNKSt3__114__split_bufferI10MaxElementRNS_9allocatorIS1_EEE8capacityB8ne180100Ev, symObjAddr: 0x23C8, symBinAddr: 0x100005C1C, symSize: 0x40 }
  - { offset: 0xA432, size: 0x8, addend: 0x0, symName: __ZNSt3__114__split_bufferI10MaxElementRNS_9allocatorIS1_EEE17__destruct_at_endB8ne180100EPS1_, symObjAddr: 0x2408, symBinAddr: 0x100005C5C, symSize: 0x2C }
  - { offset: 0xA464, size: 0x8, addend: 0x0, symName: __ZNSt3__114__split_bufferI10MaxElementRNS_9allocatorIS1_EEE17__destruct_at_endB8ne180100EPS1_NS_17integral_constantIbLb0EEE, symObjAddr: 0x2434, symBinAddr: 0x100005C88, symSize: 0x94 }
  - { offset: 0xA4A4, size: 0x8, addend: 0x0, symName: __ZNSt3__116allocator_traitsINS_9allocatorI10MaxElementEEE7destroyB8ne180100IS2_vEEvRS3_PT_, symObjAddr: 0x24C8, symBinAddr: 0x100005D1C, symSize: 0x2C }
  - { offset: 0xA4E1, size: 0x8, addend: 0x0, symName: __ZNSt3__19allocatorI10MaxElementE7destroyB8ne180100EPS1_, symObjAddr: 0x24F4, symBinAddr: 0x100005D48, symSize: 0x14 }
  - { offset: 0xA513, size: 0x8, addend: 0x0, symName: __ZNSt3__19allocatorI10MaxElementE10deallocateB8ne180100EPS1_m, symObjAddr: 0x2508, symBinAddr: 0x100005D5C, symSize: 0x70 }
  - { offset: 0xA553, size: 0x8, addend: 0x0, symName: __ZNKSt3__114__split_bufferI10MaxElementRNS_9allocatorIS1_EEE9__end_capB8ne180100Ev, symObjAddr: 0x25F4, symBinAddr: 0x100005E48, symSize: 0x28 }
  - { offset: 0xA577, size: 0x8, addend: 0x0, symName: __ZNKSt3__117__compressed_pairIP10MaxElementRNS_9allocatorIS1_EEE5firstB8ne180100Ev, symObjAddr: 0x261C, symBinAddr: 0x100005E70, symSize: 0x24 }
  - { offset: 0xA59B, size: 0x8, addend: 0x0, symName: __ZNSt3__16vectorI10MaxElementNS_9allocatorIS1_EEE22__base_destruct_at_endB8ne180100EPS1_, symObjAddr: 0x2640, symBinAddr: 0x100005E94, symSize: 0xA0 }
  - { offset: 0xA5DE, size: 0x8, addend: 0x0, symName: __ZNKSt3__16vectorI10MaxElementNS_9allocatorIS1_EEE17__annotate_shrinkB8ne180100Em, symObjAddr: 0x26E0, symBinAddr: 0x100005F34, symSize: 0x14 }
  - { offset: 0xA612, size: 0x8, addend: 0x0, symName: __ZN10MaxElementC2Ei, symObjAddr: 0x26F4, symBinAddr: 0x100005F48, symSize: 0x20 }
  - { offset: 0xA649, size: 0x8, addend: 0x0, symName: __ZNKSt3__16__lessIvvEclB8ne180100IiiEEbRKT_RKT0_, symObjAddr: 0x2794, symBinAddr: 0x100005FE8, symSize: 0x34 }
  - { offset: 0xA69B, size: 0x8, addend: 0x0, symName: __ZNSt3__16vectorI10MaxElementNS_9allocatorIS1_EEED2B8ne180100Ev, symObjAddr: 0x27C8, symBinAddr: 0x10000601C, symSize: 0x3C }
  - { offset: 0xA6C3, size: 0x8, addend: 0x0, symName: __ZNSt3__16vectorI10MaxElementNS_9allocatorIS1_EEE16__destroy_vectorC1B8ne180100ERS4_, symObjAddr: 0x2804, symBinAddr: 0x100006058, symSize: 0x34 }
  - { offset: 0xA6FA, size: 0x8, addend: 0x0, symName: __ZNSt3__16vectorI10MaxElementNS_9allocatorIS1_EEE16__destroy_vectorclB8ne180100Ev, symObjAddr: 0x2838, symBinAddr: 0x10000608C, symSize: 0x90 }
  - { offset: 0xA71F, size: 0x8, addend: 0x0, symName: __ZNSt3__16vectorI10MaxElementNS_9allocatorIS1_EEE16__destroy_vectorC2B8ne180100ERS4_, symObjAddr: 0x28C8, symBinAddr: 0x10000611C, symSize: 0x20 }
  - { offset: 0xA756, size: 0x8, addend: 0x0, symName: __ZNSt3__16vectorI10MaxElementNS_9allocatorIS1_EEE7__clearB8ne180100Ev, symObjAddr: 0x28E8, symBinAddr: 0x10000613C, symSize: 0x28 }
  - { offset: 0xA77A, size: 0x8, addend: 0x0, symName: __ZN2StD2Ev, symObjAddr: 0x2910, symBinAddr: 0x100006164, symSize: 0x30 }
  - { offset: 0xA7A4, size: 0x8, addend: 0x0, symName: __ZNSt3__16vectorIiNS_9allocatorIiEEEC2Em, symObjAddr: 0x2940, symBinAddr: 0x100006194, symSize: 0xDC }
  - { offset: 0xA7F2, size: 0x8, addend: 0x0, symName: __ZNSt3__117__compressed_pairIPiNS_9allocatorIiEEEC1B8ne180100IDnNS_18__default_init_tagEEEOT_OT0_, symObjAddr: 0x2A1C, symBinAddr: 0x100006270, symSize: 0x3C }
  - { offset: 0xA848, size: 0x8, addend: 0x0, symName: __ZNSt3__16vectorIiNS_9allocatorIiEEE16__destroy_vectorC1B8ne180100ERS3_, symObjAddr: 0x2A98, symBinAddr: 0x1000062EC, symSize: 0x34 }
  - { offset: 0xA87F, size: 0x8, addend: 0x0, symName: __ZNSt3__16vectorIiNS_9allocatorIiEEE11__vallocateB8ne180100Em, symObjAddr: 0x2ACC, symBinAddr: 0x100006320, symSize: 0xAC }
  - { offset: 0xA8C1, size: 0x8, addend: 0x0, symName: __ZNSt3__16vectorIiNS_9allocatorIiEEE18__construct_at_endEm, symObjAddr: 0x2B78, symBinAddr: 0x1000063CC, symSize: 0xD0 }
  - { offset: 0xA932, size: 0x8, addend: 0x0, symName: __ZNSt3__128__exception_guard_exceptionsINS_6vectorIiNS_9allocatorIiEEE16__destroy_vectorEE10__completeB8ne180100Ev, symObjAddr: 0x2C48, symBinAddr: 0x10000649C, symSize: 0x1C }
  - { offset: 0xA956, size: 0x8, addend: 0x0, symName: __ZNSt3__128__exception_guard_exceptionsINS_6vectorIiNS_9allocatorIiEEE16__destroy_vectorEED1B8ne180100Ev, symObjAddr: 0x2C64, symBinAddr: 0x1000064B8, symSize: 0x2C }
  - { offset: 0xA97E, size: 0x8, addend: 0x0, symName: __ZNSt3__117__compressed_pairIPiNS_9allocatorIiEEEC2B8ne180100IDnNS_18__default_init_tagEEEOT_OT0_, symObjAddr: 0x2C90, symBinAddr: 0x1000064E4, symSize: 0x40 }
  - { offset: 0xA9D5, size: 0x8, addend: 0x0, symName: __ZNSt3__122__compressed_pair_elemIPiLi0ELb0EEC2B8ne180100IDnvEEOT_, symObjAddr: 0x2CD0, symBinAddr: 0x100006524, symSize: 0x1C }
  - { offset: 0xAA15, size: 0x8, addend: 0x0, symName: __ZNSt3__122__compressed_pair_elemINS_9allocatorIiEELi1ELb1EEC2B8ne180100ENS_18__default_init_tagE, symObjAddr: 0x2CEC, symBinAddr: 0x100006540, symSize: 0x2C }
  - { offset: 0xAA48, size: 0x8, addend: 0x0, symName: __ZNSt3__19allocatorIiEC2B8ne180100Ev, symObjAddr: 0x2D18, symBinAddr: 0x10000656C, symSize: 0x2C }
  - { offset: 0xAA71, size: 0x8, addend: 0x0, symName: __ZNSt3__116__non_trivial_ifILb1ENS_9allocatorIiEEEC2B8ne180100Ev, symObjAddr: 0x2D44, symBinAddr: 0x100006598, symSize: 0x14 }
  - { offset: 0xAA99, size: 0x8, addend: 0x0, symName: __ZNSt3__128__exception_guard_exceptionsINS_6vectorIiNS_9allocatorIiEEE16__destroy_vectorEEC1B8ne180100ES5_, symObjAddr: 0x2D58, symBinAddr: 0x1000065AC, symSize: 0x34 }
  - { offset: 0xAAD0, size: 0x8, addend: 0x0, symName: __ZNSt3__128__exception_guard_exceptionsINS_6vectorIiNS_9allocatorIiEEE16__destroy_vectorEEC2B8ne180100ES5_, symObjAddr: 0x2D8C, symBinAddr: 0x1000065E0, symSize: 0x24 }
  - { offset: 0xAB07, size: 0x8, addend: 0x0, symName: __ZNSt3__16vectorIiNS_9allocatorIiEEE16__destroy_vectorC2B8ne180100ERS3_, symObjAddr: 0x2DB0, symBinAddr: 0x100006604, symSize: 0x20 }
  - { offset: 0xAB3E, size: 0x8, addend: 0x0, symName: __ZNKSt3__16vectorIiNS_9allocatorIiEEE8max_sizeEv, symObjAddr: 0x2DD0, symBinAddr: 0x100006624, symSize: 0x74 }
  - { offset: 0xAB64, size: 0x8, addend: 0x0, symName: __ZNKSt3__16vectorIiNS_9allocatorIiEEE20__throw_length_errorB8ne180100Ev, symObjAddr: 0x2E44, symBinAddr: 0x100006698, symSize: 0x1C }
  - { offset: 0xAB88, size: 0x8, addend: 0x0, symName: __ZNSt3__16vectorIiNS_9allocatorIiEEE7__allocB8ne180100Ev, symObjAddr: 0x2EA0, symBinAddr: 0x1000066F4, symSize: 0x28 }
  - { offset: 0xABAC, size: 0x8, addend: 0x0, symName: __ZNSt3__16vectorIiNS_9allocatorIiEEE9__end_capB8ne180100Ev, symObjAddr: 0x2EC8, symBinAddr: 0x10000671C, symSize: 0x28 }
  - { offset: 0xABD1, size: 0x8, addend: 0x0, symName: __ZNKSt3__16vectorIiNS_9allocatorIiEEE14__annotate_newB8ne180100Em, symObjAddr: 0x2EF0, symBinAddr: 0x100006744, symSize: 0x14 }
  - { offset: 0xAC0F, size: 0x8, addend: 0x0, symName: __ZNSt3__116allocator_traitsINS_9allocatorIiEEE8max_sizeB8ne180100IS2_vEEmRKS2_, symObjAddr: 0x2F04, symBinAddr: 0x100006758, symSize: 0x24 }
  - { offset: 0xAC3C, size: 0x8, addend: 0x0, symName: __ZNKSt3__16vectorIiNS_9allocatorIiEEE7__allocB8ne180100Ev, symObjAddr: 0x2F28, symBinAddr: 0x10000677C, symSize: 0x28 }
  - { offset: 0xAC61, size: 0x8, addend: 0x0, symName: __ZNKSt3__19allocatorIiE8max_sizeB8ne180100Ev, symObjAddr: 0x2F50, symBinAddr: 0x1000067A4, symSize: 0x14 }
  - { offset: 0xAC85, size: 0x8, addend: 0x0, symName: __ZNKSt3__117__compressed_pairIPiNS_9allocatorIiEEE6secondB8ne180100Ev, symObjAddr: 0x2F64, symBinAddr: 0x1000067B8, symSize: 0x24 }
  - { offset: 0xACAA, size: 0x8, addend: 0x0, symName: __ZNKSt3__122__compressed_pair_elemINS_9allocatorIiEELi1ELb1EE5__getB8ne180100Ev, symObjAddr: 0x2F88, symBinAddr: 0x1000067DC, symSize: 0x14 }
  - { offset: 0xACCE, size: 0x8, addend: 0x0, symName: __ZNSt3__19allocatorIiE8allocateB8ne180100Em, symObjAddr: 0x2F9C, symBinAddr: 0x1000067F0, symSize: 0x84 }
  - { offset: 0xAD00, size: 0x8, addend: 0x0, symName: __ZNSt3__117__compressed_pairIPiNS_9allocatorIiEEE6secondB8ne180100Ev, symObjAddr: 0x3020, symBinAddr: 0x100006874, symSize: 0x24 }
  - { offset: 0xAD25, size: 0x8, addend: 0x0, symName: __ZNSt3__122__compressed_pair_elemINS_9allocatorIiEELi1ELb1EE5__getB8ne180100Ev, symObjAddr: 0x3044, symBinAddr: 0x100006898, symSize: 0x14 }
  - { offset: 0xAD49, size: 0x8, addend: 0x0, symName: __ZNSt3__117__compressed_pairIPiNS_9allocatorIiEEE5firstB8ne180100Ev, symObjAddr: 0x3058, symBinAddr: 0x1000068AC, symSize: 0x24 }
  - { offset: 0xAD6E, size: 0x8, addend: 0x0, symName: __ZNSt3__122__compressed_pair_elemIPiLi0ELb0EE5__getB8ne180100Ev, symObjAddr: 0x307C, symBinAddr: 0x1000068D0, symSize: 0x14 }
  - { offset: 0xADAB, size: 0x8, addend: 0x0, symName: __ZNSt3__16vectorIiNS_9allocatorIiEEE21_ConstructTransactionC1B8ne180100ERS3_m, symObjAddr: 0x3090, symBinAddr: 0x1000068E4, symSize: 0x3C }
  - { offset: 0xADF2, size: 0x8, addend: 0x0, symName: __ZNSt3__116allocator_traitsINS_9allocatorIiEEE9constructB8ne180100IiJEvEEvRS2_PT_DpOT0_, symObjAddr: 0x30CC, symBinAddr: 0x100006920, symSize: 0x2C }
  - { offset: 0xAE33, size: 0x8, addend: 0x0, symName: __ZNSt3__16vectorIiNS_9allocatorIiEEE21_ConstructTransactionD1B8ne180100Ev, symObjAddr: 0x310C, symBinAddr: 0x100006960, symSize: 0x2C }
  - { offset: 0xAE5C, size: 0x8, addend: 0x0, symName: __ZNSt3__16vectorIiNS_9allocatorIiEEE21_ConstructTransactionC2B8ne180100ERS3_m, symObjAddr: 0x3138, symBinAddr: 0x10000698C, symSize: 0x44 }
  - { offset: 0xAEA3, size: 0x8, addend: 0x0, symName: __ZNSt3__19allocatorIiE9constructB8ne180100IiJEEEvPT_DpOT0_, symObjAddr: 0x317C, symBinAddr: 0x1000069D0, symSize: 0x1C }
  - { offset: 0xAEE4, size: 0x8, addend: 0x0, symName: __ZNSt3__16vectorIiNS_9allocatorIiEEE21_ConstructTransactionD2B8ne180100Ev, symObjAddr: 0x3198, symBinAddr: 0x1000069EC, symSize: 0x20 }
  - { offset: 0xAF0C, size: 0x8, addend: 0x0, symName: __ZNSt3__128__exception_guard_exceptionsINS_6vectorIiNS_9allocatorIiEEE16__destroy_vectorEED2B8ne180100Ev, symObjAddr: 0x31B8, symBinAddr: 0x100006A0C, symSize: 0x48 }
  - { offset: 0xAF34, size: 0x8, addend: 0x0, symName: __ZNSt3__16vectorIiNS_9allocatorIiEEE16__destroy_vectorclB8ne180100Ev, symObjAddr: 0x3200, symBinAddr: 0x100006A54, symSize: 0x90 }
  - { offset: 0xAF58, size: 0x8, addend: 0x0, symName: __ZNSt3__16vectorIiNS_9allocatorIiEEE7__clearB8ne180100Ev, symObjAddr: 0x3290, symBinAddr: 0x100006AE4, symSize: 0x28 }
  - { offset: 0xAF7D, size: 0x8, addend: 0x0, symName: __ZNKSt3__16vectorIiNS_9allocatorIiEEE17__annotate_deleteB8ne180100Ev, symObjAddr: 0x32B8, symBinAddr: 0x100006B0C, symSize: 0x10 }
  - { offset: 0xAFA2, size: 0x8, addend: 0x0, symName: __ZNSt3__116allocator_traitsINS_9allocatorIiEEE10deallocateB8ne180100ERS2_Pim, symObjAddr: 0x32C8, symBinAddr: 0x100006B1C, symSize: 0x34 }
  - { offset: 0xAFE3, size: 0x8, addend: 0x0, symName: __ZNKSt3__16vectorIiNS_9allocatorIiEEE8capacityB8ne180100Ev, symObjAddr: 0x32FC, symBinAddr: 0x100006B50, symSize: 0x40 }
  - { offset: 0xB007, size: 0x8, addend: 0x0, symName: __ZNSt3__16vectorIiNS_9allocatorIiEEE22__base_destruct_at_endB8ne180100EPi, symObjAddr: 0x333C, symBinAddr: 0x100006B90, symSize: 0xA0 }
  - { offset: 0xB04A, size: 0x8, addend: 0x0, symName: __ZNSt3__116allocator_traitsINS_9allocatorIiEEE7destroyB8ne180100IivEEvRS2_PT_, symObjAddr: 0x33DC, symBinAddr: 0x100006C30, symSize: 0x2C }
  - { offset: 0xB087, size: 0x8, addend: 0x0, symName: __ZNSt3__19allocatorIiE7destroyB8ne180100EPi, symObjAddr: 0x3408, symBinAddr: 0x100006C5C, symSize: 0x14 }
  - { offset: 0xB0B9, size: 0x8, addend: 0x0, symName: __ZNSt3__19allocatorIiE10deallocateB8ne180100EPim, symObjAddr: 0x341C, symBinAddr: 0x100006C70, symSize: 0x70 }
  - { offset: 0xB0F9, size: 0x8, addend: 0x0, symName: __ZNKSt3__16vectorIiNS_9allocatorIiEEE9__end_capB8ne180100Ev, symObjAddr: 0x348C, symBinAddr: 0x100006CE0, symSize: 0x28 }
  - { offset: 0xB11D, size: 0x8, addend: 0x0, symName: __ZNKSt3__117__compressed_pairIPiNS_9allocatorIiEEE5firstB8ne180100Ev, symObjAddr: 0x34B4, symBinAddr: 0x100006D08, symSize: 0x24 }
  - { offset: 0xB142, size: 0x8, addend: 0x0, symName: __ZNKSt3__122__compressed_pair_elemIPiLi0ELb0EE5__getB8ne180100Ev, symObjAddr: 0x34D8, symBinAddr: 0x100006D2C, symSize: 0x14 }
  - { offset: 0xB166, size: 0x8, addend: 0x0, symName: __ZNSt3__16vectorIiNS_9allocatorIiEEED2B8ne180100Ev, symObjAddr: 0x34EC, symBinAddr: 0x100006D40, symSize: 0x3C }
  - { offset: 0xB1AD, size: 0x8, addend: 0x0, symName: __ZNKSt3__113basic_ostreamIcNS_11char_traitsIcEEE6sentrycvbB8ne180100Ev, symObjAddr: 0x371C, symBinAddr: 0x100006F70, symSize: 0x1C }
  - { offset: 0xB1D1, size: 0x8, addend: 0x0, symName: __ZNSt3__119ostreambuf_iteratorIcNS_11char_traitsIcEEEC1B8ne180100ERNS_13basic_ostreamIcS2_EE, symObjAddr: 0x3980, symBinAddr: 0x1000071D4, symSize: 0x34 }
  - { offset: 0xB207, size: 0x8, addend: 0x0, symName: __ZNKSt3__18ios_base5flagsB8ne180100Ev, symObjAddr: 0x39B4, symBinAddr: 0x100007208, symSize: 0x18 }
  - { offset: 0xB22D, size: 0x8, addend: 0x0, symName: __ZNKSt3__19basic_iosIcNS_11char_traitsIcEEE4fillB8ne180100Ev, symObjAddr: 0x39CC, symBinAddr: 0x100007220, symSize: 0x64 }
  - { offset: 0xB254, size: 0x8, addend: 0x0, symName: __ZNKSt3__119ostreambuf_iteratorIcNS_11char_traitsIcEEE6failedB8ne180100Ev, symObjAddr: 0x3A30, symBinAddr: 0x100007284, symSize: 0x24 }
  - { offset: 0xB278, size: 0x8, addend: 0x0, symName: __ZNSt3__19basic_iosIcNS_11char_traitsIcEEE8setstateB8ne180100Ej, symObjAddr: 0x3A54, symBinAddr: 0x1000072A8, symSize: 0x2C }
  - { offset: 0xB2AB, size: 0x8, addend: 0x0, symName: __ZNKSt3__18ios_base5widthB8ne180100Ev, symObjAddr: 0x3A80, symBinAddr: 0x1000072D4, symSize: 0x18 }
  - { offset: 0xB2D1, size: 0x8, addend: 0x0, symName: __ZNSt3__115basic_streambufIcNS_11char_traitsIcEEE5sputnB8ne180100EPKcl, symObjAddr: 0x3A98, symBinAddr: 0x1000072EC, symSize: 0x3C }
  - { offset: 0xB311, size: 0x8, addend: 0x0, symName: __ZNSt3__112basic_stringIcNS_11char_traitsIcEENS_9allocatorIcEEEC1B8ne180100Emc, symObjAddr: 0x3AD4, symBinAddr: 0x100007328, symSize: 0x3C }
  - { offset: 0xB357, size: 0x8, addend: 0x0, symName: __ZNKSt3__112basic_stringIcNS_11char_traitsIcEENS_9allocatorIcEEE4dataB8ne180100Ev, symObjAddr: 0x3B10, symBinAddr: 0x100007364, symSize: 0x28 }
  - { offset: 0xB37B, size: 0x8, addend: 0x0, symName: __ZNSt3__18ios_base5widthB8ne180100El, symObjAddr: 0x3B38, symBinAddr: 0x10000738C, symSize: 0x2C }
  - { offset: 0xB3BF, size: 0x8, addend: 0x0, symName: __ZNSt3__112basic_stringIcNS_11char_traitsIcEENS_9allocatorIcEEEC2B8ne180100Emc, symObjAddr: 0x3B64, symBinAddr: 0x1000073B8, symSize: 0x4C }
  - { offset: 0xB405, size: 0x8, addend: 0x0, symName: __ZNSt3__117__compressed_pairINS_12basic_stringIcNS_11char_traitsIcEENS_9allocatorIcEEE5__repES5_EC1B8ne180100INS_18__default_init_tagESA_EEOT_OT0_, symObjAddr: 0x3BB0, symBinAddr: 0x100007404, symSize: 0x3C }
  - { offset: 0xB45B, size: 0x8, addend: 0x0, symName: __ZNSt3__117__compressed_pairINS_12basic_stringIcNS_11char_traitsIcEENS_9allocatorIcEEE5__repES5_EC2B8ne180100INS_18__default_init_tagESA_EEOT_OT0_, symObjAddr: 0x3BEC, symBinAddr: 0x100007440, symSize: 0x3C }
  - { offset: 0xB4B2, size: 0x8, addend: 0x0, symName: __ZNSt3__122__compressed_pair_elemINS_12basic_stringIcNS_11char_traitsIcEENS_9allocatorIcEEE5__repELi0ELb0EEC2B8ne180100ENS_18__default_init_tagE, symObjAddr: 0x3C28, symBinAddr: 0x10000747C, symSize: 0x14 }
  - { offset: 0xB4E5, size: 0x8, addend: 0x0, symName: __ZNSt3__122__compressed_pair_elemINS_9allocatorIcEELi1ELb1EEC2B8ne180100ENS_18__default_init_tagE, symObjAddr: 0x3C3C, symBinAddr: 0x100007490, symSize: 0x2C }
  - { offset: 0xB518, size: 0x8, addend: 0x0, symName: __ZNSt3__19allocatorIcEC2B8ne180100Ev, symObjAddr: 0x3C68, symBinAddr: 0x1000074BC, symSize: 0x2C }
  - { offset: 0xB541, size: 0x8, addend: 0x0, symName: __ZNSt3__116__non_trivial_ifILb1ENS_9allocatorIcEEEC2B8ne180100Ev, symObjAddr: 0x3C94, symBinAddr: 0x1000074E8, symSize: 0x14 }
  - { offset: 0xB569, size: 0x8, addend: 0x0, symName: __ZNKSt3__112basic_stringIcNS_11char_traitsIcEENS_9allocatorIcEEE13__get_pointerB8ne180100Ev, symObjAddr: 0x3CBC, symBinAddr: 0x100007510, symSize: 0x54 }
  - { offset: 0xB58D, size: 0x8, addend: 0x0, symName: __ZNKSt3__112basic_stringIcNS_11char_traitsIcEENS_9allocatorIcEEE9__is_longB8ne180100Ev, symObjAddr: 0x3D10, symBinAddr: 0x100007564, symSize: 0x94 }
  - { offset: 0xB5B1, size: 0x8, addend: 0x0, symName: __ZNKSt3__112basic_stringIcNS_11char_traitsIcEENS_9allocatorIcEEE18__get_long_pointerB8ne180100Ev, symObjAddr: 0x3DA4, symBinAddr: 0x1000075F8, symSize: 0x28 }
  - { offset: 0xB5D5, size: 0x8, addend: 0x0, symName: __ZNKSt3__112basic_stringIcNS_11char_traitsIcEENS_9allocatorIcEEE19__get_short_pointerB8ne180100Ev, symObjAddr: 0x3DCC, symBinAddr: 0x100007620, symSize: 0x28 }
  - { offset: 0xB5F9, size: 0x8, addend: 0x0, symName: __ZNKSt3__117__compressed_pairINS_12basic_stringIcNS_11char_traitsIcEENS_9allocatorIcEEE5__repES5_E5firstB8ne180100Ev, symObjAddr: 0x3DF4, symBinAddr: 0x100007648, symSize: 0x24 }
  - { offset: 0xB61E, size: 0x8, addend: 0x0, symName: __ZNKSt3__122__compressed_pair_elemINS_12basic_stringIcNS_11char_traitsIcEENS_9allocatorIcEEE5__repELi0ELb0EE5__getB8ne180100Ev, symObjAddr: 0x3E18, symBinAddr: 0x10000766C, symSize: 0x14 }
  - { offset: 0xB643, size: 0x8, addend: 0x0, symName: __ZNSt3__114pointer_traitsIPKcE10pointer_toB8ne180100ERS1_, symObjAddr: 0x3E2C, symBinAddr: 0x100007680, symSize: 0x14 }
  - { offset: 0xB665, size: 0x8, addend: 0x0, symName: __ZNSt3__119ostreambuf_iteratorIcNS_11char_traitsIcEEEC2B8ne180100ERNS_13basic_ostreamIcS2_EE, symObjAddr: 0x3E40, symBinAddr: 0x100007694, symSize: 0x68 }
  - { offset: 0xB69B, size: 0x8, addend: 0x0, symName: __ZNKSt3__19basic_iosIcNS_11char_traitsIcEEE5rdbufB8ne180100Ev, symObjAddr: 0x3EA8, symBinAddr: 0x1000076FC, symSize: 0x24 }
  - { offset: 0xB6C2, size: 0x8, addend: 0x0, symName: __ZNKSt3__18ios_base5rdbufB8ne180100Ev, symObjAddr: 0x3ECC, symBinAddr: 0x100007720, symSize: 0x18 }
  - { offset: 0xB6E7, size: 0x8, addend: 0x0, symName: __ZNSt3__111char_traitsIcE11eq_int_typeB8ne180100Eii, symObjAddr: 0x3EE4, symBinAddr: 0x100007738, symSize: 0x28 }
  - { offset: 0xB71A, size: 0x8, addend: 0x0, symName: __ZNSt3__111char_traitsIcE3eofB8ne180100Ev, symObjAddr: 0x3F0C, symBinAddr: 0x100007760, symSize: 0x8 }
  - { offset: 0xB72D, size: 0x8, addend: 0x0, symName: __ZNKSt3__19basic_iosIcNS_11char_traitsIcEEE5widenB8ne180100Ec, symObjAddr: 0x3F14, symBinAddr: 0x100007768, symSize: 0x8C }
  - { offset: 0xB7A4, size: 0x8, addend: 0x0, symName: __ZNKSt3__15ctypeIcE5widenB8ne180100Ec, symObjAddr: 0x3FCC, symBinAddr: 0x100007820, symSize: 0x38 }
  - { offset: 0xB7D7, size: 0x8, addend: 0x0, symName: __ZNSt3__18ios_base8setstateB8ne180100Ej, symObjAddr: 0x4004, symBinAddr: 0x100007858, symSize: 0x34 }
...
