---
triple:          'arm64-apple-darwin'
binary-path:     '/Users/pattarakultawee.k.aa/Desktop/CLRS/CP/codeforces/458_D_bash_and_a_tough_math_puzzle'
relocations:
  - { offset: 0x5655, size: 0x8, addend: 0x0, symName: __ZNSt3__124__put_character_sequenceB8ne180100IcNS_11char_traitsIcEEEERNS_13basic_ostreamIT_T0_EES7_PKS4_m, symObjAddr: 0x375C, symBinAddr: 0x100006D00, symSize: 0x1F4 }
  - { offset: 0x66D1, size: 0x8, addend: 0x0, symName: __ZNSt3__1lsB8ne180100INS_11char_traitsIcEEEERNS_13basic_ostreamIcT_EES6_PKc, symObjAddr: 0x660, symBinAddr: 0x100003C04, symSize: 0x48 }
  - { offset: 0x6717, size: 0x8, addend: 0x0, symName: __ZNSt3__112__to_addressB8ne180100I8RangeGCDEEPT_S3_, symObjAddr: 0x13B4, symBinAddr: 0x100004958, symSize: 0x14 }
  - { offset: 0x674C, size: 0x8, addend: 0x0, symName: __ZNSt3__13maxB8ne180100ImEERKT_S3_S3_, symObjAddr: 0x1588, symBinAddr: 0x100004B2C, symSize: 0x2C }
  - { offset: 0x678F, size: 0x8, addend: 0x0, symName: __ZNSt3__13minB8ne180100ImEERKT_S3_S3_, symObjAddr: 0x15B4, symBinAddr: 0x100004B58, symSize: 0x2C }
  - { offset: 0x69D3, size: 0x8, addend: 0x0, symName: __ZNSt3__13minB8ne180100ImNS_6__lessIvvEEEERKT_S5_S5_T0_, symObjAddr: 0x1640, symBinAddr: 0x100004BE4, symSize: 0x54 }
  - { offset: 0x6A72, size: 0x8, addend: 0x0, symName: __ZNSt3__120__throw_length_errorB8ne180100EPKc, symObjAddr: 0x171C, symBinAddr: 0x100004CC0, symSize: 0x64 }
  - { offset: 0x6A9A, size: 0x8, addend: 0x0, symName: __ZNSt3__13maxB8ne180100ImNS_6__lessIvvEEEERKT_S5_S5_T0_, symObjAddr: 0x1858, symBinAddr: 0x100004DFC, symSize: 0x54 }
  - { offset: 0x6AF4, size: 0x8, addend: 0x0, symName: __ZNSt3__119__allocate_at_leastB8ne180100INS_9allocatorI8RangeGCDEEEENS_19__allocation_resultINS_16allocator_traitsIT_E7pointerEEERS6_m, symObjAddr: 0x19BC, symBinAddr: 0x100004F60, symSize: 0x40 }
  - { offset: 0x6B37, size: 0x8, addend: 0x0, symName: __ZNSt3__130__libcpp_is_constant_evaluatedB8ne180100Ev, symObjAddr: 0x1B6C, symBinAddr: 0x100005110, symSize: 0xC }
  - { offset: 0x6B54, size: 0x8, addend: 0x0, symName: __ZNSt3__117__libcpp_allocateB8ne180100Emm, symObjAddr: 0x1B78, symBinAddr: 0x10000511C, symSize: 0x28 }
  - { offset: 0x6B91, size: 0x8, addend: 0x0, symName: __ZNSt3__121__libcpp_operator_newB8ne180100IJmEEEPvDpT_, symObjAddr: 0x1BA0, symBinAddr: 0x100005144, symSize: 0x24 }
  - { offset: 0x6BCA, size: 0x8, addend: 0x0, symName: __ZNSt3__142__uninitialized_allocator_move_if_noexceptB8ne180100INS_9allocatorI8RangeGCDEENS_16reverse_iteratorIPS2_EES6_S2_vEET1_RT_T0_SA_S7_, symObjAddr: 0x1D04, symBinAddr: 0x1000052A8, symSize: 0xE8 }
  - { offset: 0x6C47, size: 0x8, addend: 0x0, symName: __ZNSt3__14swapB8ne180100IP8RangeGCDEEvRT_S4_, symObjAddr: 0x1E38, symBinAddr: 0x1000053DC, symSize: 0x3C }
  - { offset: 0x6C98, size: 0x8, addend: 0x0, symName: __ZNSt3__1neB8ne180100IP8RangeGCDS2_EEbRKNS_16reverse_iteratorIT_EERKNS3_IT0_EE, symObjAddr: 0x1E88, symBinAddr: 0x10000542C, symSize: 0x48 }
  - { offset: 0x6CE4, size: 0x8, addend: 0x0, symName: __ZNSt3__114__construct_atB8ne180100I8RangeGCDJS1_EPS1_EEPT_S4_DpOT0_, symObjAddr: 0x1ED0, symBinAddr: 0x100005474, symSize: 0x24 }
  - { offset: 0x6D37, size: 0x8, addend: 0x0, symName: __ZNSt3__112__to_addressB8ne180100INS_16reverse_iteratorIP8RangeGCDEEvEEu7__decayIDTclsr19__to_address_helperIT_EE6__callclsr3stdE7declvalIRKS5_EEEEES7_, symObjAddr: 0x1EF4, symBinAddr: 0x100005498, symSize: 0x24 }
  - { offset: 0x6D6D, size: 0x8, addend: 0x0, symName: __ZNSt3__14moveB8ne180100INS_16reverse_iteratorIP8RangeGCDEES4_EET0_T_S6_S5_, symObjAddr: 0x1F60, symBinAddr: 0x100005504, symSize: 0x78 }
  - { offset: 0x6DF0, size: 0x8, addend: 0x0, symName: __ZNSt3__16__moveB8ne180100INS_17_ClassicAlgPolicyENS_16reverse_iteratorIP8RangeGCDEES5_S5_EENS_4pairIT0_T2_EES7_T1_S8_, symObjAddr: 0x2048, symBinAddr: 0x1000055EC, symSize: 0x64 }
  - { offset: 0x6E5C, size: 0x8, addend: 0x0, symName: __ZNSt3__123__dispatch_copy_or_moveB8ne180100INS_17_ClassicAlgPolicyENS_11__move_loopIS1_EENS_14__move_trivialENS_16reverse_iteratorIP8RangeGCDEES8_S8_EENS_4pairIT2_T4_EESA_T3_SB_, symObjAddr: 0x20AC, symBinAddr: 0x100005650, symSize: 0x64 }
  - { offset: 0x6EDA, size: 0x8, addend: 0x0, symName: __ZNSt3__121__unwrap_and_dispatchB8ne180100INS_10__overloadINS_11__move_loopINS_17_ClassicAlgPolicyEEENS_14__move_trivialEEENS_16reverse_iteratorIP8RangeGCDEESA_SA_Li0EEENS_4pairIT0_T2_EESC_T1_SD_, symObjAddr: 0x2110, symBinAddr: 0x1000056B4, symSize: 0x12C }
  - { offset: 0x6F6A, size: 0x8, addend: 0x0, symName: __ZNSt3__114__unwrap_rangeB8ne180100INS_16reverse_iteratorIP8RangeGCDEES4_EENS_4pairIT0_S6_EET_S8_, symObjAddr: 0x223C, symBinAddr: 0x1000057E0, symSize: 0x84 }
  - { offset: 0x70BE, size: 0x8, addend: 0x0, symName: __ZNSt3__113__unwrap_iterB8ne180100INS_16reverse_iteratorIP8RangeGCDEENS_18__unwrap_iter_implIS4_Lb0EEELi0EEEDTclsrT0_8__unwrapclsr3stdE7declvalIT_EEEES8_, symObjAddr: 0x2360, symBinAddr: 0x100005904, symSize: 0x44 }
  - { offset: 0x7102, size: 0x8, addend: 0x0, symName: __ZNSt3__19make_pairB8ne180100INS_16reverse_iteratorIP8RangeGCDEES4_EENS_4pairINS_18__unwrap_ref_decayIT_E4typeENS6_IT0_E4typeEEEOS7_OSA_, symObjAddr: 0x23A4, symBinAddr: 0x100005948, symSize: 0x38 }
  - { offset: 0x7151, size: 0x8, addend: 0x0, symName: __ZNSt3__114__rewrap_rangeB8ne180100INS_16reverse_iteratorIP8RangeGCDEES4_EET_S5_T0_, symObjAddr: 0x23DC, symBinAddr: 0x100005980, symSize: 0x5C }
  - { offset: 0x719D, size: 0x8, addend: 0x0, symName: __ZNSt3__113__rewrap_iterB8ne180100INS_16reverse_iteratorIP8RangeGCDEES4_NS_18__unwrap_iter_implIS4_Lb0EEEEET_S7_T0_, symObjAddr: 0x2438, symBinAddr: 0x1000059DC, symSize: 0x88 }
  - { offset: 0x729C, size: 0x8, addend: 0x0, symName: __ZNSt3__119__libcpp_deallocateB8ne180100EPvmm, symObjAddr: 0x2860, symBinAddr: 0x100005E04, symSize: 0x30 }
  - { offset: 0x72E4, size: 0x8, addend: 0x0, symName: __ZNSt3__127__do_deallocate_handle_sizeB8ne180100IJEEEvPvmDpT_, symObjAddr: 0x2890, symBinAddr: 0x100005E34, symSize: 0x28 }
  - { offset: 0x7322, size: 0x8, addend: 0x0, symName: __ZNSt3__124__libcpp_operator_deleteB8ne180100IJPvEEEvDpT_, symObjAddr: 0x28B8, symBinAddr: 0x100005E5C, symSize: 0x24 }
  - { offset: 0x7357, size: 0x8, addend: 0x0, symName: __ZNSt3__122__make_exception_guardB8ne180100INS_6vectorIiNS_9allocatorIiEEE16__destroy_vectorEEENS_28__exception_guard_exceptionsIT_EES7_, symObjAddr: 0x2C8C, symBinAddr: 0x100006230, symSize: 0x40 }
  - { offset: 0x738C, size: 0x8, addend: 0x0, symName: __ZNSt3__119__allocate_at_leastB8ne180100INS_9allocatorIiEEEENS_19__allocation_resultINS_16allocator_traitsIT_E7pointerEEERS5_m, symObjAddr: 0x3094, symBinAddr: 0x100006638, symSize: 0x40 }
  - { offset: 0x73CF, size: 0x8, addend: 0x0, symName: __ZNSt3__112__to_addressB8ne180100IiEEPT_S2_, symObjAddr: 0x332C, symBinAddr: 0x1000068D0, symSize: 0x14 }
  - { offset: 0x7404, size: 0x8, addend: 0x0, symName: __ZNSt3__116__pad_and_outputB8ne180100IcNS_11char_traitsIcEEEENS_19ostreambuf_iteratorIT_T0_EES6_PKS4_S8_S8_RNS_8ios_baseES4_, symObjAddr: 0x39B4, symBinAddr: 0x100006F58, symSize: 0x248 }
  - { offset: 0x74D3, size: 0x8, addend: 0x0, symName: __ZNSt3__112__to_addressB8ne180100IKcEEPT_S3_, symObjAddr: 0x3F24, symBinAddr: 0x1000074C8, symSize: 0x14 }
  - { offset: 0x753B, size: 0x8, addend: 0x0, symName: __ZNSt3__19use_facetB8ne180100INS_5ctypeIcEEEERKT_RKNS_6localeE, symObjAddr: 0x421C, symBinAddr: 0x1000077C0, symSize: 0x2C }
  - { offset: 0x7A08, size: 0x8, addend: 0x0, symName: __ZNSt3__118__constexpr_strlenB8ne180100EPKc, symObjAddr: 0x42B4, symBinAddr: 0x100007858, symSize: 0x24 }
  - { offset: 0x87A1, size: 0x8, addend: 0x0, symName: __ZSt28__throw_bad_array_new_lengthB8ne180100v, symObjAddr: 0x1B38, symBinAddr: 0x1000050DC, symSize: 0x34 }
  - { offset: 0x8D6A, size: 0x8, addend: 0x0, symName: __ZNSt3__16vectorI8RangeGCDNS_9allocatorIS1_EEE26__swap_out_circular_bufferERNS_14__split_bufferIS1_RS3_EE, symObjAddr: 0x11D0, symBinAddr: 0x100004774, symSize: 0x110 }
  - { offset: 0x8EE8, size: 0x8, addend: 0x0, symName: __Z3gcdii, symObjAddr: 0x0, symBinAddr: 0x1000035A4, symSize: 0x5C }
  - { offset: 0x8F3E, size: 0x8, addend: 0x0, symName: _main, symObjAddr: 0x5C, symBinAddr: 0x100003600, symSize: 0x2DC }
  - { offset: 0x902D, size: 0x8, addend: 0x0, symName: __ZNSt3__19basic_iosIcNS_11char_traitsIcEEE3tieB8ne180100EPNS_13basic_ostreamIcS2_EE, symObjAddr: 0x338, symBinAddr: 0x1000038DC, symSize: 0x2C }
  - { offset: 0x9071, size: 0x8, addend: 0x0, symName: __ZNSt3__16vectorIiNS_9allocatorIiEEEC1Em, symObjAddr: 0x364, symBinAddr: 0x100003908, symSize: 0x34 }
  - { offset: 0x90AA, size: 0x8, addend: 0x0, symName: __ZNSt3__16vectorIiNS_9allocatorIiEEEixB8ne180100Em, symObjAddr: 0x398, symBinAddr: 0x10000393C, symSize: 0x24 }
  - { offset: 0x916E, size: 0x8, addend: 0x0, symName: __ZN2StC1ERKNSt3__16vectorIiNS0_9allocatorIiEEEE, symObjAddr: 0x3BC, symBinAddr: 0x100003960, symSize: 0x34 }
  - { offset: 0x91A4, size: 0x8, addend: 0x0, symName: __ZN2St27first_index_of_non_multipleEiii, symObjAddr: 0x3F0, symBinAddr: 0x100003994, symSize: 0x270 }
  - { offset: 0x921C, size: 0x8, addend: 0x0, symName: __ZN2St6modifyEii, symObjAddr: 0x6A8, symBinAddr: 0x100003C4C, symSize: 0xF4 }
  - { offset: 0x925C, size: 0x8, addend: 0x0, symName: __ZN2StD1Ev, symObjAddr: 0x79C, symBinAddr: 0x100003D40, symSize: 0x2C }
  - { offset: 0x9286, size: 0x8, addend: 0x0, symName: __ZNSt3__16vectorIiNS_9allocatorIiEEED1B8ne180100Ev, symObjAddr: 0x7D8, symBinAddr: 0x100003D7C, symSize: 0x2C }
  - { offset: 0x92AE, size: 0x8, addend: 0x0, symName: __ZN2StC2ERKNSt3__16vectorIiNS0_9allocatorIiEEEE, symObjAddr: 0x804, symBinAddr: 0x100003DA8, symSize: 0x228 }
  - { offset: 0x931D, size: 0x8, addend: 0x0, symName: __ZNKSt3__16vectorIiNS_9allocatorIiEEE4sizeB8ne180100Ev, symObjAddr: 0xA2C, symBinAddr: 0x100003FD0, symSize: 0x28 }
  - { offset: 0x9341, size: 0x8, addend: 0x0, symName: __ZNSt3__16vectorI8RangeGCDNS_9allocatorIS1_EEEC1B8ne180100Ev, symObjAddr: 0xA54, symBinAddr: 0x100003FF8, symSize: 0x2C }
  - { offset: 0x9369, size: 0x8, addend: 0x0, symName: __ZNSt3__16vectorI8RangeGCDNS_9allocatorIS1_EEE6resizeEmRKS1_, symObjAddr: 0xA80, symBinAddr: 0x100004024, symSize: 0x9C }
  - { offset: 0x93BC, size: 0x8, addend: 0x0, symName: __ZN8RangeGCDC1Ei, symObjAddr: 0xB1C, symBinAddr: 0x1000040C0, symSize: 0x34 }
  - { offset: 0x93F2, size: 0x8, addend: 0x0, symName: __ZNKSt3__16vectorIiNS_9allocatorIiEEEixB8ne180100Em, symObjAddr: 0xB50, symBinAddr: 0x1000040F4, symSize: 0x24 }
  - { offset: 0x9427, size: 0x8, addend: 0x0, symName: __ZNSt3__16vectorI8RangeGCDNS_9allocatorIS1_EEEixB8ne180100Em, symObjAddr: 0xB74, symBinAddr: 0x100004118, symSize: 0x24 }
  - { offset: 0x945C, size: 0x8, addend: 0x0, symName: __ZN8RangeGCDplERKS_, symObjAddr: 0xB98, symBinAddr: 0x10000413C, symSize: 0x50 }
  - { offset: 0x949C, size: 0x8, addend: 0x0, symName: __ZNSt3__16vectorI8RangeGCDNS_9allocatorIS1_EEED1B8ne180100Ev, symObjAddr: 0xBE8, symBinAddr: 0x10000418C, symSize: 0x2C }
  - { offset: 0x94C4, size: 0x8, addend: 0x0, symName: __ZNSt3__16vectorI8RangeGCDNS_9allocatorIS1_EEEC2B8ne180100Ev, symObjAddr: 0xC14, symBinAddr: 0x1000041B8, symSize: 0x44 }
  - { offset: 0x94FC, size: 0x8, addend: 0x0, symName: __ZNSt3__117__compressed_pairIP8RangeGCDNS_9allocatorIS1_EEEC1B8ne180100IDnNS_18__default_init_tagEEEOT_OT0_, symObjAddr: 0xC58, symBinAddr: 0x1000041FC, symSize: 0x3C }
  - { offset: 0x9552, size: 0x8, addend: 0x0, symName: __ZNSt3__117__compressed_pairIP8RangeGCDNS_9allocatorIS1_EEEC2B8ne180100IDnNS_18__default_init_tagEEEOT_OT0_, symObjAddr: 0xC94, symBinAddr: 0x100004238, symSize: 0x40 }
  - { offset: 0x95A9, size: 0x8, addend: 0x0, symName: __ZNSt3__122__compressed_pair_elemIP8RangeGCDLi0ELb0EEC2B8ne180100IDnvEEOT_, symObjAddr: 0xCD4, symBinAddr: 0x100004278, symSize: 0x1C }
  - { offset: 0x95E9, size: 0x8, addend: 0x0, symName: __ZNSt3__122__compressed_pair_elemINS_9allocatorI8RangeGCDEELi1ELb1EEC2B8ne180100ENS_18__default_init_tagE, symObjAddr: 0xCF0, symBinAddr: 0x100004294, symSize: 0x2C }
  - { offset: 0x961C, size: 0x8, addend: 0x0, symName: __ZNSt3__19allocatorI8RangeGCDEC2B8ne180100Ev, symObjAddr: 0xD1C, symBinAddr: 0x1000042C0, symSize: 0x2C }
  - { offset: 0x9645, size: 0x8, addend: 0x0, symName: __ZNSt3__116__non_trivial_ifILb1ENS_9allocatorI8RangeGCDEEEC2B8ne180100Ev, symObjAddr: 0xD48, symBinAddr: 0x1000042EC, symSize: 0x14 }
  - { offset: 0x966E, size: 0x8, addend: 0x0, symName: __ZNKSt3__16vectorI8RangeGCDNS_9allocatorIS1_EEE4sizeB8ne180100Ev, symObjAddr: 0xD5C, symBinAddr: 0x100004300, symSize: 0x28 }
  - { offset: 0x9692, size: 0x8, addend: 0x0, symName: __ZNSt3__16vectorI8RangeGCDNS_9allocatorIS1_EEE8__appendEmRKS1_, symObjAddr: 0xD84, symBinAddr: 0x100004328, symSize: 0x11C }
  - { offset: 0x96FA, size: 0x8, addend: 0x0, symName: __ZNSt3__16vectorI8RangeGCDNS_9allocatorIS1_EEE17__destruct_at_endB8ne180100EPS1_, symObjAddr: 0xEA0, symBinAddr: 0x100004444, symSize: 0x4C }
  - { offset: 0x973C, size: 0x8, addend: 0x0, symName: __ZNSt3__16vectorI8RangeGCDNS_9allocatorIS1_EEE9__end_capB8ne180100Ev, symObjAddr: 0xEEC, symBinAddr: 0x100004490, symSize: 0x28 }
  - { offset: 0x9760, size: 0x8, addend: 0x0, symName: __ZNSt3__16vectorI8RangeGCDNS_9allocatorIS1_EEE18__construct_at_endEmRKS1_, symObjAddr: 0xF14, symBinAddr: 0x1000044B8, symSize: 0xD8 }
  - { offset: 0x97DF, size: 0x8, addend: 0x0, symName: __ZNSt3__16vectorI8RangeGCDNS_9allocatorIS1_EEE7__allocB8ne180100Ev, symObjAddr: 0xFEC, symBinAddr: 0x100004590, symSize: 0x28 }
  - { offset: 0x9803, size: 0x8, addend: 0x0, symName: __ZNKSt3__16vectorI8RangeGCDNS_9allocatorIS1_EEE11__recommendB8ne180100Em, symObjAddr: 0x1014, symBinAddr: 0x1000045B8, symSize: 0xB4 }
  - { offset: 0x9856, size: 0x8, addend: 0x0, symName: __ZNSt3__114__split_bufferI8RangeGCDRNS_9allocatorIS1_EEEC1EmmS4_, symObjAddr: 0x10C8, symBinAddr: 0x10000466C, symSize: 0x44 }
  - { offset: 0x98AA, size: 0x8, addend: 0x0, symName: __ZNSt3__114__split_bufferI8RangeGCDRNS_9allocatorIS1_EEE18__construct_at_endEmRKS1_, symObjAddr: 0x110C, symBinAddr: 0x1000046B0, symSize: 0xC4 }
  - { offset: 0x98FB, size: 0x8, addend: 0x0, symName: __ZNSt3__114__split_bufferI8RangeGCDRNS_9allocatorIS1_EEED1Ev, symObjAddr: 0x12E0, symBinAddr: 0x100004884, symSize: 0x2C }
  - { offset: 0x9925, size: 0x8, addend: 0x0, symName: __ZNSt3__117__compressed_pairIP8RangeGCDNS_9allocatorIS1_EEE5firstB8ne180100Ev, symObjAddr: 0x130C, symBinAddr: 0x1000048B0, symSize: 0x24 }
  - { offset: 0x994A, size: 0x8, addend: 0x0, symName: __ZNSt3__122__compressed_pair_elemIP8RangeGCDLi0ELb0EE5__getB8ne180100Ev, symObjAddr: 0x1330, symBinAddr: 0x1000048D4, symSize: 0x14 }
  - { offset: 0x9987, size: 0x8, addend: 0x0, symName: __ZNSt3__16vectorI8RangeGCDNS_9allocatorIS1_EEE21_ConstructTransactionC1B8ne180100ERS4_m, symObjAddr: 0x1344, symBinAddr: 0x1000048E8, symSize: 0x3C }
  - { offset: 0x99CE, size: 0x8, addend: 0x0, symName: __ZNSt3__116allocator_traitsINS_9allocatorI8RangeGCDEEE9constructB8ne180100IS2_JRKS2_EvEEvRS3_PT_DpOT0_, symObjAddr: 0x1380, symBinAddr: 0x100004924, symSize: 0x34 }
  - { offset: 0x9A24, size: 0x8, addend: 0x0, symName: __ZNSt3__16vectorI8RangeGCDNS_9allocatorIS1_EEE21_ConstructTransactionD1B8ne180100Ev, symObjAddr: 0x13C8, symBinAddr: 0x10000496C, symSize: 0x2C }
  - { offset: 0x9A4D, size: 0x8, addend: 0x0, symName: __ZNSt3__16vectorI8RangeGCDNS_9allocatorIS1_EEE21_ConstructTransactionC2B8ne180100ERS4_m, symObjAddr: 0x13F4, symBinAddr: 0x100004998, symSize: 0x44 }
  - { offset: 0x9A94, size: 0x8, addend: 0x0, symName: __ZNSt3__19allocatorI8RangeGCDE9constructB8ne180100IS1_JRKS1_EEEvPT_DpOT0_, symObjAddr: 0x1438, symBinAddr: 0x1000049DC, symSize: 0x28 }
  - { offset: 0x9AE9, size: 0x8, addend: 0x0, symName: __ZNSt3__16vectorI8RangeGCDNS_9allocatorIS1_EEE21_ConstructTransactionD2B8ne180100Ev, symObjAddr: 0x1460, symBinAddr: 0x100004A04, symSize: 0x20 }
  - { offset: 0x9B11, size: 0x8, addend: 0x0, symName: __ZNSt3__117__compressed_pairIP8RangeGCDNS_9allocatorIS1_EEE6secondB8ne180100Ev, symObjAddr: 0x1480, symBinAddr: 0x100004A24, symSize: 0x24 }
  - { offset: 0x9B36, size: 0x8, addend: 0x0, symName: __ZNSt3__122__compressed_pair_elemINS_9allocatorI8RangeGCDEELi1ELb1EE5__getB8ne180100Ev, symObjAddr: 0x14A4, symBinAddr: 0x100004A48, symSize: 0x14 }
  - { offset: 0x9B5A, size: 0x8, addend: 0x0, symName: __ZNKSt3__16vectorI8RangeGCDNS_9allocatorIS1_EEE8max_sizeEv, symObjAddr: 0x14B8, symBinAddr: 0x100004A5C, symSize: 0x74 }
  - { offset: 0x9B80, size: 0x8, addend: 0x0, symName: __ZNKSt3__16vectorI8RangeGCDNS_9allocatorIS1_EEE20__throw_length_errorB8ne180100Ev, symObjAddr: 0x152C, symBinAddr: 0x100004AD0, symSize: 0x1C }
  - { offset: 0x9BA4, size: 0x8, addend: 0x0, symName: __ZNKSt3__16vectorI8RangeGCDNS_9allocatorIS1_EEE8capacityB8ne180100Ev, symObjAddr: 0x1548, symBinAddr: 0x100004AEC, symSize: 0x40 }
  - { offset: 0x9BD3, size: 0x8, addend: 0x0, symName: __ZNSt3__116allocator_traitsINS_9allocatorI8RangeGCDEEE8max_sizeB8ne180100IS3_vEEmRKS3_, symObjAddr: 0x15E0, symBinAddr: 0x100004B84, symSize: 0x24 }
  - { offset: 0x9C00, size: 0x8, addend: 0x0, symName: __ZNKSt3__16vectorI8RangeGCDNS_9allocatorIS1_EEE7__allocB8ne180100Ev, symObjAddr: 0x1604, symBinAddr: 0x100004BA8, symSize: 0x28 }
  - { offset: 0x9C25, size: 0x8, addend: 0x0, symName: __ZNSt3__114numeric_limitsIlE3maxB8ne180100Ev, symObjAddr: 0x162C, symBinAddr: 0x100004BD0, symSize: 0x14 }
  - { offset: 0x9C4D, size: 0x8, addend: 0x0, symName: __ZNKSt3__16__lessIvvEclB8ne180100ImmEEbRKT_RKT0_, symObjAddr: 0x1694, symBinAddr: 0x100004C38, symSize: 0x34 }
  - { offset: 0x9CA0, size: 0x8, addend: 0x0, symName: __ZNKSt3__19allocatorI8RangeGCDE8max_sizeB8ne180100Ev, symObjAddr: 0x16C8, symBinAddr: 0x100004C6C, symSize: 0x14 }
  - { offset: 0x9CC4, size: 0x8, addend: 0x0, symName: __ZNKSt3__117__compressed_pairIP8RangeGCDNS_9allocatorIS1_EEE6secondB8ne180100Ev, symObjAddr: 0x16DC, symBinAddr: 0x100004C80, symSize: 0x24 }
  - { offset: 0x9CE9, size: 0x8, addend: 0x0, symName: __ZNKSt3__122__compressed_pair_elemINS_9allocatorI8RangeGCDEELi1ELb1EE5__getB8ne180100Ev, symObjAddr: 0x1700, symBinAddr: 0x100004CA4, symSize: 0x14 }
  - { offset: 0x9D0E, size: 0x8, addend: 0x0, symName: __ZNSt3__123__libcpp_numeric_limitsIlLb1EE3maxB8ne180100Ev, symObjAddr: 0x1714, symBinAddr: 0x100004CB8, symSize: 0x8 }
  - { offset: 0x9D21, size: 0x8, addend: 0x0, symName: __ZNSt12length_errorC1B8ne180100EPKc, symObjAddr: 0x1780, symBinAddr: 0x100004D24, symSize: 0x34 }
  - { offset: 0x9D57, size: 0x8, addend: 0x0, symName: __ZNSt12length_errorC2B8ne180100EPKc, symObjAddr: 0x17B4, symBinAddr: 0x100004D58, symSize: 0x44 }
  - { offset: 0x9D8D, size: 0x8, addend: 0x0, symName: __ZNKSt3__16vectorI8RangeGCDNS_9allocatorIS1_EEE9__end_capB8ne180100Ev, symObjAddr: 0x17F8, symBinAddr: 0x100004D9C, symSize: 0x28 }
  - { offset: 0x9DB1, size: 0x8, addend: 0x0, symName: __ZNKSt3__117__compressed_pairIP8RangeGCDNS_9allocatorIS1_EEE5firstB8ne180100Ev, symObjAddr: 0x1820, symBinAddr: 0x100004DC4, symSize: 0x24 }
  - { offset: 0x9DD6, size: 0x8, addend: 0x0, symName: __ZNKSt3__122__compressed_pair_elemIP8RangeGCDLi0ELb0EE5__getB8ne180100Ev, symObjAddr: 0x1844, symBinAddr: 0x100004DE8, symSize: 0x14 }
  - { offset: 0x9DFA, size: 0x8, addend: 0x0, symName: __ZNSt3__114__split_bufferI8RangeGCDRNS_9allocatorIS1_EEEC2EmmS4_, symObjAddr: 0x18AC, symBinAddr: 0x100004E50, symSize: 0xD4 }
  - { offset: 0x9E6B, size: 0x8, addend: 0x0, symName: __ZNSt3__117__compressed_pairIP8RangeGCDRNS_9allocatorIS1_EEEC1B8ne180100IDnS5_EEOT_OT0_, symObjAddr: 0x1980, symBinAddr: 0x100004F24, symSize: 0x3C }
  - { offset: 0x9EC1, size: 0x8, addend: 0x0, symName: __ZNSt3__114__split_bufferI8RangeGCDRNS_9allocatorIS1_EEE7__allocB8ne180100Ev, symObjAddr: 0x19FC, symBinAddr: 0x100004FA0, symSize: 0x28 }
  - { offset: 0x9EE5, size: 0x8, addend: 0x0, symName: __ZNSt3__114__split_bufferI8RangeGCDRNS_9allocatorIS1_EEE9__end_capB8ne180100Ev, symObjAddr: 0x1A24, symBinAddr: 0x100004FC8, symSize: 0x28 }
  - { offset: 0x9F09, size: 0x8, addend: 0x0, symName: __ZNSt3__117__compressed_pairIP8RangeGCDRNS_9allocatorIS1_EEEC2B8ne180100IDnS5_EEOT_OT0_, symObjAddr: 0x1A4C, symBinAddr: 0x100004FF0, symSize: 0x48 }
  - { offset: 0x9F60, size: 0x8, addend: 0x0, symName: __ZNSt3__122__compressed_pair_elemIRNS_9allocatorI8RangeGCDEELi1ELb0EEC2B8ne180100IS4_vEEOT_, symObjAddr: 0x1A94, symBinAddr: 0x100005038, symSize: 0x20 }
  - { offset: 0x9FA0, size: 0x8, addend: 0x0, symName: __ZNSt3__19allocatorI8RangeGCDE8allocateB8ne180100Em, symObjAddr: 0x1AB4, symBinAddr: 0x100005058, symSize: 0x84 }
  - { offset: 0x9FD2, size: 0x8, addend: 0x0, symName: __ZNSt3__117__compressed_pairIP8RangeGCDRNS_9allocatorIS1_EEE6secondB8ne180100Ev, symObjAddr: 0x1BC4, symBinAddr: 0x100005168, symSize: 0x28 }
  - { offset: 0x9FF7, size: 0x8, addend: 0x0, symName: __ZNSt3__122__compressed_pair_elemIRNS_9allocatorI8RangeGCDEELi1ELb0EE5__getB8ne180100Ev, symObjAddr: 0x1BEC, symBinAddr: 0x100005190, symSize: 0x18 }
  - { offset: 0xA01B, size: 0x8, addend: 0x0, symName: __ZNSt3__117__compressed_pairIP8RangeGCDRNS_9allocatorIS1_EEE5firstB8ne180100Ev, symObjAddr: 0x1C04, symBinAddr: 0x1000051A8, symSize: 0x24 }
  - { offset: 0xA049, size: 0x8, addend: 0x0, symName: __ZNSt3__114__split_bufferI8RangeGCDRNS_9allocatorIS1_EEE21_ConstructTransactionC1B8ne180100EPPS1_m, symObjAddr: 0x1C28, symBinAddr: 0x1000051CC, symSize: 0x3C }
  - { offset: 0xA08D, size: 0x8, addend: 0x0, symName: __ZNSt3__114__split_bufferI8RangeGCDRNS_9allocatorIS1_EEE21_ConstructTransactionD1B8ne180100Ev, symObjAddr: 0x1C64, symBinAddr: 0x100005208, symSize: 0x2C }
  - { offset: 0xA0B6, size: 0x8, addend: 0x0, symName: __ZNSt3__114__split_bufferI8RangeGCDRNS_9allocatorIS1_EEE21_ConstructTransactionC2B8ne180100EPPS1_m, symObjAddr: 0x1C90, symBinAddr: 0x100005234, symSize: 0x44 }
  - { offset: 0xA0FB, size: 0x8, addend: 0x0, symName: __ZNSt3__114__split_bufferI8RangeGCDRNS_9allocatorIS1_EEE21_ConstructTransactionD2B8ne180100Ev, symObjAddr: 0x1CD4, symBinAddr: 0x100005278, symSize: 0x20 }
  - { offset: 0xA124, size: 0x8, addend: 0x0, symName: __ZNKSt3__16vectorI8RangeGCDNS_9allocatorIS1_EEE17__annotate_deleteB8ne180100Ev, symObjAddr: 0x1CF4, symBinAddr: 0x100005298, symSize: 0x10 }
  - { offset: 0xA148, size: 0x8, addend: 0x0, symName: __ZNSt3__116reverse_iteratorIP8RangeGCDEC1B8ne180100ES2_, symObjAddr: 0x1DEC, symBinAddr: 0x100005390, symSize: 0x34 }
  - { offset: 0xA17F, size: 0x8, addend: 0x0, symName: __ZNKSt3__116reverse_iteratorIP8RangeGCDE4baseB8ne180100Ev, symObjAddr: 0x1E20, symBinAddr: 0x1000053C4, symSize: 0x18 }
  - { offset: 0xA1A4, size: 0x8, addend: 0x0, symName: __ZNKSt3__16vectorI8RangeGCDNS_9allocatorIS1_EEE14__annotate_newB8ne180100Em, symObjAddr: 0x1E74, symBinAddr: 0x100005418, symSize: 0x14 }
  - { offset: 0xA1D8, size: 0x8, addend: 0x0, symName: __ZNKSt3__116reverse_iteratorIP8RangeGCDEdeB8ne180100Ev, symObjAddr: 0x1F18, symBinAddr: 0x1000054BC, symSize: 0x28 }
  - { offset: 0xA20B, size: 0x8, addend: 0x0, symName: __ZNSt3__116reverse_iteratorIP8RangeGCDEppB8ne180100Ev, symObjAddr: 0x1F40, symBinAddr: 0x1000054E4, symSize: 0x20 }
  - { offset: 0xA235, size: 0x8, addend: 0x0, symName: __ZNSt3__119__to_address_helperINS_16reverse_iteratorIP8RangeGCDEEvE6__callB8ne180100ERKS4_, symObjAddr: 0x1FD8, symBinAddr: 0x10000557C, symSize: 0x4C }
  - { offset: 0xA257, size: 0x8, addend: 0x0, symName: __ZNKSt3__116reverse_iteratorIP8RangeGCDEptB8ne180100Ev, symObjAddr: 0x2024, symBinAddr: 0x1000055C8, symSize: 0x24 }
  - { offset: 0xA29E, size: 0x8, addend: 0x0, symName: __ZNKSt3__111__move_loopINS_17_ClassicAlgPolicyEEclB8ne180100INS_16reverse_iteratorIP8RangeGCDEES7_S7_EENS_4pairIT_T1_EES9_T0_SA_, symObjAddr: 0x22C0, symBinAddr: 0x100005864, symSize: 0xA0 }
  - { offset: 0xA30D, size: 0x8, addend: 0x0, symName: __ZNSt3__18_IterOpsINS_17_ClassicAlgPolicyEE11__iter_moveB8ne180100IRNS_16reverse_iteratorIP8RangeGCDEELi0EEEDTclsr3stdE4movedeclsr3stdE7declvalIRT_EEEEOS9_, symObjAddr: 0x24C0, symBinAddr: 0x100005A64, symSize: 0x28 }
  - { offset: 0xA33F, size: 0x8, addend: 0x0, symName: __ZNSt3__18_IterOpsINS_17_ClassicAlgPolicyEE25__validate_iter_referenceB8ne180100IRNS_16reverse_iteratorIP8RangeGCDEEEEvv, symObjAddr: 0x24E8, symBinAddr: 0x100005A8C, symSize: 0x4 }
  - { offset: 0xA35D, size: 0x8, addend: 0x0, symName: __ZNSt3__118__unwrap_iter_implINS_16reverse_iteratorIP8RangeGCDEELb0EE8__unwrapB8ne180100ES4_, symObjAddr: 0x24EC, symBinAddr: 0x100005A90, symSize: 0x24 }
  - { offset: 0xA37F, size: 0x8, addend: 0x0, symName: __ZNSt3__14pairINS_16reverse_iteratorIP8RangeGCDEES4_EC1B8ne180100ERKS4_S7_, symObjAddr: 0x2510, symBinAddr: 0x100005AB4, symSize: 0x3C }
  - { offset: 0xA3C4, size: 0x8, addend: 0x0, symName: __ZNSt3__14pairINS_16reverse_iteratorIP8RangeGCDEES4_EC2B8ne180100ERKS4_S7_, symObjAddr: 0x254C, symBinAddr: 0x100005AF0, symSize: 0x34 }
  - { offset: 0xA409, size: 0x8, addend: 0x0, symName: __ZNSt3__118__unwrap_iter_implINS_16reverse_iteratorIP8RangeGCDEELb0EE8__rewrapB8ne180100ES4_S4_, symObjAddr: 0x2580, symBinAddr: 0x100005B24, symSize: 0x2C }
  - { offset: 0xA437, size: 0x8, addend: 0x0, symName: __ZNSt3__116reverse_iteratorIP8RangeGCDEC2B8ne180100ES2_, symObjAddr: 0x25AC, symBinAddr: 0x100005B50, symSize: 0x28 }
  - { offset: 0xA46D, size: 0x8, addend: 0x0, symName: __ZNSt3__114__split_bufferI8RangeGCDRNS_9allocatorIS1_EEED2Ev, symObjAddr: 0x25D4, symBinAddr: 0x100005B78, symSize: 0x80 }
  - { offset: 0xA497, size: 0x8, addend: 0x0, symName: __ZNSt3__114__split_bufferI8RangeGCDRNS_9allocatorIS1_EEE5clearB8ne180100Ev, symObjAddr: 0x2654, symBinAddr: 0x100005BF8, symSize: 0x28 }
  - { offset: 0xA4BC, size: 0x8, addend: 0x0, symName: __ZNSt3__116allocator_traitsINS_9allocatorI8RangeGCDEEE10deallocateB8ne180100ERS3_PS2_m, symObjAddr: 0x267C, symBinAddr: 0x100005C20, symSize: 0x34 }
  - { offset: 0xA4FD, size: 0x8, addend: 0x0, symName: __ZNKSt3__114__split_bufferI8RangeGCDRNS_9allocatorIS1_EEE8capacityB8ne180100Ev, symObjAddr: 0x26B0, symBinAddr: 0x100005C54, symSize: 0x40 }
  - { offset: 0xA521, size: 0x8, addend: 0x0, symName: __ZNSt3__114__split_bufferI8RangeGCDRNS_9allocatorIS1_EEE17__destruct_at_endB8ne180100EPS1_, symObjAddr: 0x26F0, symBinAddr: 0x100005C94, symSize: 0x2C }
  - { offset: 0xA553, size: 0x8, addend: 0x0, symName: __ZNSt3__114__split_bufferI8RangeGCDRNS_9allocatorIS1_EEE17__destruct_at_endB8ne180100EPS1_NS_17integral_constantIbLb0EEE, symObjAddr: 0x271C, symBinAddr: 0x100005CC0, symSize: 0x94 }
  - { offset: 0xA593, size: 0x8, addend: 0x0, symName: __ZNSt3__116allocator_traitsINS_9allocatorI8RangeGCDEEE7destroyB8ne180100IS2_vEEvRS3_PT_, symObjAddr: 0x27B0, symBinAddr: 0x100005D54, symSize: 0x2C }
  - { offset: 0xA5D0, size: 0x8, addend: 0x0, symName: __ZNSt3__19allocatorI8RangeGCDE7destroyB8ne180100EPS1_, symObjAddr: 0x27DC, symBinAddr: 0x100005D80, symSize: 0x14 }
  - { offset: 0xA602, size: 0x8, addend: 0x0, symName: __ZNSt3__19allocatorI8RangeGCDE10deallocateB8ne180100EPS1_m, symObjAddr: 0x27F0, symBinAddr: 0x100005D94, symSize: 0x70 }
  - { offset: 0xA642, size: 0x8, addend: 0x0, symName: __ZNKSt3__114__split_bufferI8RangeGCDRNS_9allocatorIS1_EEE9__end_capB8ne180100Ev, symObjAddr: 0x28DC, symBinAddr: 0x100005E80, symSize: 0x28 }
  - { offset: 0xA666, size: 0x8, addend: 0x0, symName: __ZNKSt3__117__compressed_pairIP8RangeGCDRNS_9allocatorIS1_EEE5firstB8ne180100Ev, symObjAddr: 0x2904, symBinAddr: 0x100005EA8, symSize: 0x24 }
  - { offset: 0xA68A, size: 0x8, addend: 0x0, symName: __ZNSt3__16vectorI8RangeGCDNS_9allocatorIS1_EEE22__base_destruct_at_endB8ne180100EPS1_, symObjAddr: 0x2928, symBinAddr: 0x100005ECC, symSize: 0xA0 }
  - { offset: 0xA6CD, size: 0x8, addend: 0x0, symName: __ZNKSt3__16vectorI8RangeGCDNS_9allocatorIS1_EEE17__annotate_shrinkB8ne180100Em, symObjAddr: 0x29C8, symBinAddr: 0x100005F6C, symSize: 0x14 }
  - { offset: 0xA701, size: 0x8, addend: 0x0, symName: __ZN8RangeGCDC2Ei, symObjAddr: 0x29DC, symBinAddr: 0x100005F80, symSize: 0x20 }
  - { offset: 0xA737, size: 0x8, addend: 0x0, symName: __ZNSt3__16vectorI8RangeGCDNS_9allocatorIS1_EEED2B8ne180100Ev, symObjAddr: 0x29FC, symBinAddr: 0x100005FA0, symSize: 0x3C }
  - { offset: 0xA75F, size: 0x8, addend: 0x0, symName: __ZNSt3__16vectorI8RangeGCDNS_9allocatorIS1_EEE16__destroy_vectorC1B8ne180100ERS4_, symObjAddr: 0x2A38, symBinAddr: 0x100005FDC, symSize: 0x34 }
  - { offset: 0xA796, size: 0x8, addend: 0x0, symName: __ZNSt3__16vectorI8RangeGCDNS_9allocatorIS1_EEE16__destroy_vectorclB8ne180100Ev, symObjAddr: 0x2A6C, symBinAddr: 0x100006010, symSize: 0x90 }
  - { offset: 0xA7BB, size: 0x8, addend: 0x0, symName: __ZNSt3__16vectorI8RangeGCDNS_9allocatorIS1_EEE16__destroy_vectorC2B8ne180100ERS4_, symObjAddr: 0x2AFC, symBinAddr: 0x1000060A0, symSize: 0x20 }
  - { offset: 0xA7F2, size: 0x8, addend: 0x0, symName: __ZNSt3__16vectorI8RangeGCDNS_9allocatorIS1_EEE7__clearB8ne180100Ev, symObjAddr: 0x2B1C, symBinAddr: 0x1000060C0, symSize: 0x28 }
  - { offset: 0xA816, size: 0x8, addend: 0x0, symName: __ZN2StD2Ev, symObjAddr: 0x2B44, symBinAddr: 0x1000060E8, symSize: 0x30 }
  - { offset: 0xA840, size: 0x8, addend: 0x0, symName: __ZNSt3__16vectorIiNS_9allocatorIiEEEC2Em, symObjAddr: 0x2B74, symBinAddr: 0x100006118, symSize: 0xDC }
  - { offset: 0xA88E, size: 0x8, addend: 0x0, symName: __ZNSt3__117__compressed_pairIPiNS_9allocatorIiEEEC1B8ne180100IDnNS_18__default_init_tagEEEOT_OT0_, symObjAddr: 0x2C50, symBinAddr: 0x1000061F4, symSize: 0x3C }
  - { offset: 0xA8E4, size: 0x8, addend: 0x0, symName: __ZNSt3__16vectorIiNS_9allocatorIiEEE16__destroy_vectorC1B8ne180100ERS3_, symObjAddr: 0x2CCC, symBinAddr: 0x100006270, symSize: 0x34 }
  - { offset: 0xA91B, size: 0x8, addend: 0x0, symName: __ZNSt3__16vectorIiNS_9allocatorIiEEE11__vallocateB8ne180100Em, symObjAddr: 0x2D00, symBinAddr: 0x1000062A4, symSize: 0xAC }
  - { offset: 0xA95D, size: 0x8, addend: 0x0, symName: __ZNSt3__16vectorIiNS_9allocatorIiEEE18__construct_at_endEm, symObjAddr: 0x2DAC, symBinAddr: 0x100006350, symSize: 0xD0 }
  - { offset: 0xA9CE, size: 0x8, addend: 0x0, symName: __ZNSt3__128__exception_guard_exceptionsINS_6vectorIiNS_9allocatorIiEEE16__destroy_vectorEE10__completeB8ne180100Ev, symObjAddr: 0x2E7C, symBinAddr: 0x100006420, symSize: 0x1C }
  - { offset: 0xA9F2, size: 0x8, addend: 0x0, symName: __ZNSt3__128__exception_guard_exceptionsINS_6vectorIiNS_9allocatorIiEEE16__destroy_vectorEED1B8ne180100Ev, symObjAddr: 0x2E98, symBinAddr: 0x10000643C, symSize: 0x2C }
  - { offset: 0xAA1A, size: 0x8, addend: 0x0, symName: __ZNSt3__117__compressed_pairIPiNS_9allocatorIiEEEC2B8ne180100IDnNS_18__default_init_tagEEEOT_OT0_, symObjAddr: 0x2EC4, symBinAddr: 0x100006468, symSize: 0x40 }
  - { offset: 0xAA71, size: 0x8, addend: 0x0, symName: __ZNSt3__122__compressed_pair_elemIPiLi0ELb0EEC2B8ne180100IDnvEEOT_, symObjAddr: 0x2F04, symBinAddr: 0x1000064A8, symSize: 0x1C }
  - { offset: 0xAAB1, size: 0x8, addend: 0x0, symName: __ZNSt3__122__compressed_pair_elemINS_9allocatorIiEELi1ELb1EEC2B8ne180100ENS_18__default_init_tagE, symObjAddr: 0x2F20, symBinAddr: 0x1000064C4, symSize: 0x2C }
  - { offset: 0xAAE4, size: 0x8, addend: 0x0, symName: __ZNSt3__19allocatorIiEC2B8ne180100Ev, symObjAddr: 0x2F4C, symBinAddr: 0x1000064F0, symSize: 0x2C }
  - { offset: 0xAB0D, size: 0x8, addend: 0x0, symName: __ZNSt3__116__non_trivial_ifILb1ENS_9allocatorIiEEEC2B8ne180100Ev, symObjAddr: 0x2F78, symBinAddr: 0x10000651C, symSize: 0x14 }
  - { offset: 0xAB35, size: 0x8, addend: 0x0, symName: __ZNSt3__128__exception_guard_exceptionsINS_6vectorIiNS_9allocatorIiEEE16__destroy_vectorEEC1B8ne180100ES5_, symObjAddr: 0x2F8C, symBinAddr: 0x100006530, symSize: 0x34 }
  - { offset: 0xAB6C, size: 0x8, addend: 0x0, symName: __ZNSt3__128__exception_guard_exceptionsINS_6vectorIiNS_9allocatorIiEEE16__destroy_vectorEEC2B8ne180100ES5_, symObjAddr: 0x2FC0, symBinAddr: 0x100006564, symSize: 0x24 }
  - { offset: 0xABA3, size: 0x8, addend: 0x0, symName: __ZNSt3__16vectorIiNS_9allocatorIiEEE16__destroy_vectorC2B8ne180100ERS3_, symObjAddr: 0x2FE4, symBinAddr: 0x100006588, symSize: 0x20 }
  - { offset: 0xABDA, size: 0x8, addend: 0x0, symName: __ZNKSt3__16vectorIiNS_9allocatorIiEEE8max_sizeEv, symObjAddr: 0x3004, symBinAddr: 0x1000065A8, symSize: 0x74 }
  - { offset: 0xAC00, size: 0x8, addend: 0x0, symName: __ZNKSt3__16vectorIiNS_9allocatorIiEEE20__throw_length_errorB8ne180100Ev, symObjAddr: 0x3078, symBinAddr: 0x10000661C, symSize: 0x1C }
  - { offset: 0xAC24, size: 0x8, addend: 0x0, symName: __ZNSt3__16vectorIiNS_9allocatorIiEEE7__allocB8ne180100Ev, symObjAddr: 0x30D4, symBinAddr: 0x100006678, symSize: 0x28 }
  - { offset: 0xAC48, size: 0x8, addend: 0x0, symName: __ZNSt3__16vectorIiNS_9allocatorIiEEE9__end_capB8ne180100Ev, symObjAddr: 0x30FC, symBinAddr: 0x1000066A0, symSize: 0x28 }
  - { offset: 0xAC6D, size: 0x8, addend: 0x0, symName: __ZNKSt3__16vectorIiNS_9allocatorIiEEE14__annotate_newB8ne180100Em, symObjAddr: 0x3124, symBinAddr: 0x1000066C8, symSize: 0x14 }
  - { offset: 0xACAB, size: 0x8, addend: 0x0, symName: __ZNSt3__116allocator_traitsINS_9allocatorIiEEE8max_sizeB8ne180100IS2_vEEmRKS2_, symObjAddr: 0x3138, symBinAddr: 0x1000066DC, symSize: 0x24 }
  - { offset: 0xACD8, size: 0x8, addend: 0x0, symName: __ZNKSt3__16vectorIiNS_9allocatorIiEEE7__allocB8ne180100Ev, symObjAddr: 0x315C, symBinAddr: 0x100006700, symSize: 0x28 }
  - { offset: 0xACFD, size: 0x8, addend: 0x0, symName: __ZNKSt3__19allocatorIiE8max_sizeB8ne180100Ev, symObjAddr: 0x3184, symBinAddr: 0x100006728, symSize: 0x14 }
  - { offset: 0xAD21, size: 0x8, addend: 0x0, symName: __ZNKSt3__117__compressed_pairIPiNS_9allocatorIiEEE6secondB8ne180100Ev, symObjAddr: 0x3198, symBinAddr: 0x10000673C, symSize: 0x24 }
  - { offset: 0xAD46, size: 0x8, addend: 0x0, symName: __ZNKSt3__122__compressed_pair_elemINS_9allocatorIiEELi1ELb1EE5__getB8ne180100Ev, symObjAddr: 0x31BC, symBinAddr: 0x100006760, symSize: 0x14 }
  - { offset: 0xAD6A, size: 0x8, addend: 0x0, symName: __ZNSt3__19allocatorIiE8allocateB8ne180100Em, symObjAddr: 0x31D0, symBinAddr: 0x100006774, symSize: 0x84 }
  - { offset: 0xAD9C, size: 0x8, addend: 0x0, symName: __ZNSt3__117__compressed_pairIPiNS_9allocatorIiEEE6secondB8ne180100Ev, symObjAddr: 0x3254, symBinAddr: 0x1000067F8, symSize: 0x24 }
  - { offset: 0xADC1, size: 0x8, addend: 0x0, symName: __ZNSt3__122__compressed_pair_elemINS_9allocatorIiEELi1ELb1EE5__getB8ne180100Ev, symObjAddr: 0x3278, symBinAddr: 0x10000681C, symSize: 0x14 }
  - { offset: 0xADE5, size: 0x8, addend: 0x0, symName: __ZNSt3__117__compressed_pairIPiNS_9allocatorIiEEE5firstB8ne180100Ev, symObjAddr: 0x328C, symBinAddr: 0x100006830, symSize: 0x24 }
  - { offset: 0xAE0A, size: 0x8, addend: 0x0, symName: __ZNSt3__122__compressed_pair_elemIPiLi0ELb0EE5__getB8ne180100Ev, symObjAddr: 0x32B0, symBinAddr: 0x100006854, symSize: 0x14 }
  - { offset: 0xAE47, size: 0x8, addend: 0x0, symName: __ZNSt3__16vectorIiNS_9allocatorIiEEE21_ConstructTransactionC1B8ne180100ERS3_m, symObjAddr: 0x32C4, symBinAddr: 0x100006868, symSize: 0x3C }
  - { offset: 0xAE8E, size: 0x8, addend: 0x0, symName: __ZNSt3__116allocator_traitsINS_9allocatorIiEEE9constructB8ne180100IiJEvEEvRS2_PT_DpOT0_, symObjAddr: 0x3300, symBinAddr: 0x1000068A4, symSize: 0x2C }
  - { offset: 0xAECF, size: 0x8, addend: 0x0, symName: __ZNSt3__16vectorIiNS_9allocatorIiEEE21_ConstructTransactionD1B8ne180100Ev, symObjAddr: 0x3340, symBinAddr: 0x1000068E4, symSize: 0x2C }
  - { offset: 0xAEF8, size: 0x8, addend: 0x0, symName: __ZNSt3__16vectorIiNS_9allocatorIiEEE21_ConstructTransactionC2B8ne180100ERS3_m, symObjAddr: 0x336C, symBinAddr: 0x100006910, symSize: 0x44 }
  - { offset: 0xAF3F, size: 0x8, addend: 0x0, symName: __ZNSt3__19allocatorIiE9constructB8ne180100IiJEEEvPT_DpOT0_, symObjAddr: 0x33B0, symBinAddr: 0x100006954, symSize: 0x1C }
  - { offset: 0xAF80, size: 0x8, addend: 0x0, symName: __ZNSt3__16vectorIiNS_9allocatorIiEEE21_ConstructTransactionD2B8ne180100Ev, symObjAddr: 0x33CC, symBinAddr: 0x100006970, symSize: 0x20 }
  - { offset: 0xAFA8, size: 0x8, addend: 0x0, symName: __ZNSt3__128__exception_guard_exceptionsINS_6vectorIiNS_9allocatorIiEEE16__destroy_vectorEED2B8ne180100Ev, symObjAddr: 0x33EC, symBinAddr: 0x100006990, symSize: 0x48 }
  - { offset: 0xAFD0, size: 0x8, addend: 0x0, symName: __ZNSt3__16vectorIiNS_9allocatorIiEEE16__destroy_vectorclB8ne180100Ev, symObjAddr: 0x3434, symBinAddr: 0x1000069D8, symSize: 0x90 }
  - { offset: 0xAFF4, size: 0x8, addend: 0x0, symName: __ZNSt3__16vectorIiNS_9allocatorIiEEE7__clearB8ne180100Ev, symObjAddr: 0x34C4, symBinAddr: 0x100006A68, symSize: 0x28 }
  - { offset: 0xB019, size: 0x8, addend: 0x0, symName: __ZNKSt3__16vectorIiNS_9allocatorIiEEE17__annotate_deleteB8ne180100Ev, symObjAddr: 0x34EC, symBinAddr: 0x100006A90, symSize: 0x10 }
  - { offset: 0xB03E, size: 0x8, addend: 0x0, symName: __ZNSt3__116allocator_traitsINS_9allocatorIiEEE10deallocateB8ne180100ERS2_Pim, symObjAddr: 0x34FC, symBinAddr: 0x100006AA0, symSize: 0x34 }
  - { offset: 0xB07F, size: 0x8, addend: 0x0, symName: __ZNKSt3__16vectorIiNS_9allocatorIiEEE8capacityB8ne180100Ev, symObjAddr: 0x3530, symBinAddr: 0x100006AD4, symSize: 0x40 }
  - { offset: 0xB0A3, size: 0x8, addend: 0x0, symName: __ZNSt3__16vectorIiNS_9allocatorIiEEE22__base_destruct_at_endB8ne180100EPi, symObjAddr: 0x3570, symBinAddr: 0x100006B14, symSize: 0xA0 }
  - { offset: 0xB0E6, size: 0x8, addend: 0x0, symName: __ZNSt3__116allocator_traitsINS_9allocatorIiEEE7destroyB8ne180100IivEEvRS2_PT_, symObjAddr: 0x3610, symBinAddr: 0x100006BB4, symSize: 0x2C }
  - { offset: 0xB123, size: 0x8, addend: 0x0, symName: __ZNSt3__19allocatorIiE7destroyB8ne180100EPi, symObjAddr: 0x363C, symBinAddr: 0x100006BE0, symSize: 0x14 }
  - { offset: 0xB155, size: 0x8, addend: 0x0, symName: __ZNSt3__19allocatorIiE10deallocateB8ne180100EPim, symObjAddr: 0x3650, symBinAddr: 0x100006BF4, symSize: 0x70 }
  - { offset: 0xB195, size: 0x8, addend: 0x0, symName: __ZNKSt3__16vectorIiNS_9allocatorIiEEE9__end_capB8ne180100Ev, symObjAddr: 0x36C0, symBinAddr: 0x100006C64, symSize: 0x28 }
  - { offset: 0xB1B9, size: 0x8, addend: 0x0, symName: __ZNKSt3__117__compressed_pairIPiNS_9allocatorIiEEE5firstB8ne180100Ev, symObjAddr: 0x36E8, symBinAddr: 0x100006C8C, symSize: 0x24 }
  - { offset: 0xB1DE, size: 0x8, addend: 0x0, symName: __ZNKSt3__122__compressed_pair_elemIPiLi0ELb0EE5__getB8ne180100Ev, symObjAddr: 0x370C, symBinAddr: 0x100006CB0, symSize: 0x14 }
  - { offset: 0xB202, size: 0x8, addend: 0x0, symName: __ZNSt3__16vectorIiNS_9allocatorIiEEED2B8ne180100Ev, symObjAddr: 0x3720, symBinAddr: 0x100006CC4, symSize: 0x3C }
  - { offset: 0xB22B, size: 0x8, addend: 0x0, symName: __ZNSt3__111char_traitsIcE6lengthB8ne180100EPKc, symObjAddr: 0x3950, symBinAddr: 0x100006EF4, symSize: 0x48 }
  - { offset: 0xB26C, size: 0x8, addend: 0x0, symName: __ZNKSt3__113basic_ostreamIcNS_11char_traitsIcEEE6sentrycvbB8ne180100Ev, symObjAddr: 0x3998, symBinAddr: 0x100006F3C, symSize: 0x1C }
  - { offset: 0xB290, size: 0x8, addend: 0x0, symName: __ZNSt3__119ostreambuf_iteratorIcNS_11char_traitsIcEEEC1B8ne180100ERNS_13basic_ostreamIcS2_EE, symObjAddr: 0x3BFC, symBinAddr: 0x1000071A0, symSize: 0x34 }
  - { offset: 0xB2C6, size: 0x8, addend: 0x0, symName: __ZNKSt3__18ios_base5flagsB8ne180100Ev, symObjAddr: 0x3C30, symBinAddr: 0x1000071D4, symSize: 0x18 }
  - { offset: 0xB2EC, size: 0x8, addend: 0x0, symName: __ZNKSt3__19basic_iosIcNS_11char_traitsIcEEE4fillB8ne180100Ev, symObjAddr: 0x3C48, symBinAddr: 0x1000071EC, symSize: 0x64 }
  - { offset: 0xB313, size: 0x8, addend: 0x0, symName: __ZNKSt3__119ostreambuf_iteratorIcNS_11char_traitsIcEEE6failedB8ne180100Ev, symObjAddr: 0x3CAC, symBinAddr: 0x100007250, symSize: 0x24 }
  - { offset: 0xB337, size: 0x8, addend: 0x0, symName: __ZNSt3__19basic_iosIcNS_11char_traitsIcEEE8setstateB8ne180100Ej, symObjAddr: 0x3CD0, symBinAddr: 0x100007274, symSize: 0x2C }
  - { offset: 0xB36A, size: 0x8, addend: 0x0, symName: __ZNKSt3__18ios_base5widthB8ne180100Ev, symObjAddr: 0x3CFC, symBinAddr: 0x1000072A0, symSize: 0x18 }
  - { offset: 0xB390, size: 0x8, addend: 0x0, symName: __ZNSt3__115basic_streambufIcNS_11char_traitsIcEEE5sputnB8ne180100EPKcl, symObjAddr: 0x3D14, symBinAddr: 0x1000072B8, symSize: 0x3C }
  - { offset: 0xB3D0, size: 0x8, addend: 0x0, symName: __ZNSt3__112basic_stringIcNS_11char_traitsIcEENS_9allocatorIcEEEC1B8ne180100Emc, symObjAddr: 0x3D50, symBinAddr: 0x1000072F4, symSize: 0x3C }
  - { offset: 0xB416, size: 0x8, addend: 0x0, symName: __ZNKSt3__112basic_stringIcNS_11char_traitsIcEENS_9allocatorIcEEE4dataB8ne180100Ev, symObjAddr: 0x3D8C, symBinAddr: 0x100007330, symSize: 0x28 }
  - { offset: 0xB43A, size: 0x8, addend: 0x0, symName: __ZNSt3__18ios_base5widthB8ne180100El, symObjAddr: 0x3DB4, symBinAddr: 0x100007358, symSize: 0x2C }
  - { offset: 0xB47E, size: 0x8, addend: 0x0, symName: __ZNSt3__112basic_stringIcNS_11char_traitsIcEENS_9allocatorIcEEEC2B8ne180100Emc, symObjAddr: 0x3DE0, symBinAddr: 0x100007384, symSize: 0x4C }
  - { offset: 0xB4C4, size: 0x8, addend: 0x0, symName: __ZNSt3__117__compressed_pairINS_12basic_stringIcNS_11char_traitsIcEENS_9allocatorIcEEE5__repES5_EC1B8ne180100INS_18__default_init_tagESA_EEOT_OT0_, symObjAddr: 0x3E2C, symBinAddr: 0x1000073D0, symSize: 0x3C }
  - { offset: 0xB51A, size: 0x8, addend: 0x0, symName: __ZNSt3__117__compressed_pairINS_12basic_stringIcNS_11char_traitsIcEENS_9allocatorIcEEE5__repES5_EC2B8ne180100INS_18__default_init_tagESA_EEOT_OT0_, symObjAddr: 0x3E68, symBinAddr: 0x10000740C, symSize: 0x3C }
  - { offset: 0xB571, size: 0x8, addend: 0x0, symName: __ZNSt3__122__compressed_pair_elemINS_12basic_stringIcNS_11char_traitsIcEENS_9allocatorIcEEE5__repELi0ELb0EEC2B8ne180100ENS_18__default_init_tagE, symObjAddr: 0x3EA4, symBinAddr: 0x100007448, symSize: 0x14 }
  - { offset: 0xB5A4, size: 0x8, addend: 0x0, symName: __ZNSt3__122__compressed_pair_elemINS_9allocatorIcEELi1ELb1EEC2B8ne180100ENS_18__default_init_tagE, symObjAddr: 0x3EB8, symBinAddr: 0x10000745C, symSize: 0x2C }
  - { offset: 0xB5D7, size: 0x8, addend: 0x0, symName: __ZNSt3__19allocatorIcEC2B8ne180100Ev, symObjAddr: 0x3EE4, symBinAddr: 0x100007488, symSize: 0x2C }
  - { offset: 0xB600, size: 0x8, addend: 0x0, symName: __ZNSt3__116__non_trivial_ifILb1ENS_9allocatorIcEEEC2B8ne180100Ev, symObjAddr: 0x3F10, symBinAddr: 0x1000074B4, symSize: 0x14 }
  - { offset: 0xB628, size: 0x8, addend: 0x0, symName: __ZNKSt3__112basic_stringIcNS_11char_traitsIcEENS_9allocatorIcEEE13__get_pointerB8ne180100Ev, symObjAddr: 0x3F38, symBinAddr: 0x1000074DC, symSize: 0x54 }
  - { offset: 0xB64C, size: 0x8, addend: 0x0, symName: __ZNKSt3__112basic_stringIcNS_11char_traitsIcEENS_9allocatorIcEEE9__is_longB8ne180100Ev, symObjAddr: 0x3F8C, symBinAddr: 0x100007530, symSize: 0x94 }
  - { offset: 0xB670, size: 0x8, addend: 0x0, symName: __ZNKSt3__112basic_stringIcNS_11char_traitsIcEENS_9allocatorIcEEE18__get_long_pointerB8ne180100Ev, symObjAddr: 0x4020, symBinAddr: 0x1000075C4, symSize: 0x28 }
  - { offset: 0xB694, size: 0x8, addend: 0x0, symName: __ZNKSt3__112basic_stringIcNS_11char_traitsIcEENS_9allocatorIcEEE19__get_short_pointerB8ne180100Ev, symObjAddr: 0x4048, symBinAddr: 0x1000075EC, symSize: 0x28 }
  - { offset: 0xB6B8, size: 0x8, addend: 0x0, symName: __ZNKSt3__117__compressed_pairINS_12basic_stringIcNS_11char_traitsIcEENS_9allocatorIcEEE5__repES5_E5firstB8ne180100Ev, symObjAddr: 0x4070, symBinAddr: 0x100007614, symSize: 0x24 }
  - { offset: 0xB6DD, size: 0x8, addend: 0x0, symName: __ZNKSt3__122__compressed_pair_elemINS_12basic_stringIcNS_11char_traitsIcEENS_9allocatorIcEEE5__repELi0ELb0EE5__getB8ne180100Ev, symObjAddr: 0x4094, symBinAddr: 0x100007638, symSize: 0x14 }
  - { offset: 0xB702, size: 0x8, addend: 0x0, symName: __ZNSt3__114pointer_traitsIPKcE10pointer_toB8ne180100ERS1_, symObjAddr: 0x40A8, symBinAddr: 0x10000764C, symSize: 0x14 }
  - { offset: 0xB724, size: 0x8, addend: 0x0, symName: __ZNSt3__119ostreambuf_iteratorIcNS_11char_traitsIcEEEC2B8ne180100ERNS_13basic_ostreamIcS2_EE, symObjAddr: 0x40BC, symBinAddr: 0x100007660, symSize: 0x68 }
  - { offset: 0xB75A, size: 0x8, addend: 0x0, symName: __ZNKSt3__19basic_iosIcNS_11char_traitsIcEEE5rdbufB8ne180100Ev, symObjAddr: 0x4124, symBinAddr: 0x1000076C8, symSize: 0x24 }
  - { offset: 0xB781, size: 0x8, addend: 0x0, symName: __ZNKSt3__18ios_base5rdbufB8ne180100Ev, symObjAddr: 0x4148, symBinAddr: 0x1000076EC, symSize: 0x18 }
  - { offset: 0xB7A6, size: 0x8, addend: 0x0, symName: __ZNSt3__111char_traitsIcE11eq_int_typeB8ne180100Eii, symObjAddr: 0x4160, symBinAddr: 0x100007704, symSize: 0x28 }
  - { offset: 0xB7D9, size: 0x8, addend: 0x0, symName: __ZNSt3__111char_traitsIcE3eofB8ne180100Ev, symObjAddr: 0x4188, symBinAddr: 0x10000772C, symSize: 0x8 }
  - { offset: 0xB7EC, size: 0x8, addend: 0x0, symName: __ZNKSt3__19basic_iosIcNS_11char_traitsIcEEE5widenB8ne180100Ec, symObjAddr: 0x4190, symBinAddr: 0x100007734, symSize: 0x8C }
  - { offset: 0xB863, size: 0x8, addend: 0x0, symName: __ZNKSt3__15ctypeIcE5widenB8ne180100Ec, symObjAddr: 0x4248, symBinAddr: 0x1000077EC, symSize: 0x38 }
  - { offset: 0xB896, size: 0x8, addend: 0x0, symName: __ZNSt3__18ios_base8setstateB8ne180100Ej, symObjAddr: 0x4280, symBinAddr: 0x100007824, symSize: 0x34 }
...
